 zlibwapi

 Timestamp is 4be73d18 (Mon May 10 00:54:16 2010)

 Preferred load address is 10000000

 Start         Length     Name                   Class
 0001:00000000 0000deaaH .text                   CODE
 0001:0000deaa 00001941H .text$zy                CODE
 0001:0000f7eb 00008f56H .text$zz                CODE
 0002:00000000 00000110H .idata$5                DATA
 0002:00000110 00000004H .CRT$XCA                DATA
 0002:00000114 00000004H .CRT$XCZ                DATA
 0002:00000118 00000004H .CRT$XIA                DATA
 0002:0000011c 00000010H .CRT$XIC                DATA
 0002:0000012c 00000004H .CRT$XIZ                DATA
 0002:00000130 00000004H .CRT$XPA                DATA
 0002:00000134 00000004H .CRT$XPX                DATA
 0002:00000138 00000004H .CRT$XPXA               DATA
 0002:0000013c 00000004H .CRT$XPZ                DATA
 0002:00000140 00000004H .CRT$XTA                DATA
 0002:00000144 00000004H .CRT$XTZ                DATA
 0002:00000148 00005d98H .rdata                  DATA
 0002:00005ee0 00000004H .rtc$IAA                DATA
 0002:00005ee4 00000004H .rtc$IZZ                DATA
 0002:00005ee8 00000004H .rtc$TAA                DATA
 0002:00005eec 00000004H .rtc$TZZ                DATA
 0002:00005ef0 0000041cH .xdata$x                DATA
 0002:0000630c 00000014H .idata$2                DATA
 0002:00006320 00000014H .idata$3                DATA
 0002:00006334 00000110H .idata$4                DATA
 0002:00006444 000004caH .idata$6                DATA
 0002:00006910 00000b9dH .edata                  DATA
 0003:00000000 00000facH .data                   DATA
 0003:00000fc0 00001ddcH .bss                    DATA
 0004:00000000 00000058H .rsrc$01                DATA
 0004:00000060 00000330H .rsrc$02                DATA

  Address         Publics by Value              Rva+Base       Lib:Object

 0000:00000000       ___safe_se_handler_table   00000000     <absolute>
 0000:00000000       ___safe_se_handler_count   00000000     <absolute>
 0000:00000000       __except_list              00000000     <absolute>
 0000:00000000       ___ImageBase               10000000     <linker-defined>
 0001:00000060       _deflate@8                 10001060 f   deflate.obj
 0001:00000560       _inflate_table             10001560 f   inftrees.obj
 0001:00000950       _inflate@8                 10001950 f   inflate.obj
 0001:00001740       _adler32@12                10002740 f   adler32.obj
 0001:00001f70       __tr_flush_block           10002f70 f   trees.obj
 0001:00003230       _zcalloc                   10004230 f   zutil.obj
 0001:00003250       _deflateInit2_@32          10004250 f   deflate.obj
 0001:00003450       _deflateReset@4            10004450 f   deflate.obj
 0001:00003650       _inflateInit2_@16          10004650 f   inflate.obj
 0001:000036e0       _inflateReset2@8           100046e0 f   inflate.obj
 0001:00003750       _inflateReset@4            10004750 f   inflate.obj
 0001:000037d0       _inflateInit_@12           100047d0 f   inflate.obj
 0001:000037f0       _deflateInit_@16           100047f0 f   deflate.obj
 0001:000038b0       _deflateEnd@4              100048b0 f   deflate.obj
 0001:00003960       _zcfree                    10004960 f   zutil.obj
 0001:00003980       _inflateEnd@4              10004980 f   inflate.obj
 0001:000039e0       _longest_match             100049e0 f   match686.obj
 0001:00003bc8       _match_init                10004bc8 f   match686.obj
 0001:00003bd0       _inflate_fast              10004bd0     inffas32.obj
 0001:0000436b       _sprintf                   1000536b f   LIBCMT:sprintf.obj
 0001:000043ef       _free                      100053ef f   LIBCMT:free.obj
 0001:00004429       _malloc                    10005429 f   LIBCMT:malloc.obj
 0001:000044bd       __get_sys_err_msg          100054bd f i LIBCMT:strerror.obj
 0001:000044e5       _strerror                  100054e5 f   LIBCMT:strerror.obj
 0001:00004550       _memchr                    10005550 f   LIBCMT:memchr.obj
 0001:000045fd       __get_errno_from_oserr     100055fd f   LIBCMT:dosmap.obj
 0001:0000463f       __errno                    1000563f f   LIBCMT:dosmap.obj
 0001:00004652       ___doserrno                10005652 f   LIBCMT:dosmap.obj
 0001:00004665       __dosmaperr                10005665 f   LIBCMT:dosmap.obj
 0001:00004688       __vsnprintf_l              10005688 f   LIBCMT:vsnprint.obj
 0001:00004734       __vsnprintf                10005734 f   LIBCMT:vsnprint.obj
 0001:00004751       __ftelli64_nolock          10005751 f   LIBCMT:ftelli64.obj
 0001:00004a9b       __ftelli64                 10005a9b f   LIBCMT:ftelli64.obj
 0001:00004b08       __fseeki64_nolock          10005b08 f   LIBCMT:fseeki64.obj
 0001:00004ba4       __fseeki64                 10005ba4 f   LIBCMT:fseeki64.obj
 0001:00004c23       __fsopen                   10005c23 f   LIBCMT:fopen.obj
 0001:00004cdf       _fopen                     10005cdf f   LIBCMT:fopen.obj
 0001:00004cf6       __fread_nolock_s           10005cf6 f   LIBCMT:fread.obj
 0001:00004eb2       _fread_s                   10005eb2 f   LIBCMT:fread.obj
 0001:00004f40       _fread                     10005f40 f   LIBCMT:fread.obj
 0001:00004f5d       _ferror                    10005f5d f   LIBCMT:feoferr.obj
 0001:00004f85       __fwrite_nolock            10005f85 f   LIBCMT:fwrite.obj
 0001:000050dc       _fwrite                    100060dc f   LIBCMT:fwrite.obj
 0001:00005156       __fclose_nolock            10006156 f   LIBCMT:fclose.obj
 0001:000051c3       _fclose                    100061c3 f   LIBCMT:fclose.obj
 0001:00005237       _srand                     10006237 f   LIBCMT:rand.obj
 0001:00005249       _rand                      10006249 f   LIBCMT:rand.obj
 0001:0000526a       __time64                   1000626a f   LIBCMT:time64.obj
 0001:000052bb       __CRT_INIT@12              100062bb f   LIBCMT:dllcrt0.obj
 0001:00005515       __DllMainCRTStartup@12     10006515 f   LIBCMT:dllcrt0.obj
 0001:00005538       __flsbuf                   10006538 f   LIBCMT:_flsbuf.obj
 0001:0000569c       ??0_LocaleUpdate@@QAE@PAUlocaleinfo_struct@@@Z 1000669c f i LIBCMT:output.obj
 0001:000057ca       __output_l                 100067ca f   LIBCMT:output.obj
 0001:00006376       __initp_misc_invarg        10007376 f   LIBCMT:invarg.obj
 0001:00006385       __call_reportfault         10007385 f   LIBCMT:invarg.obj
 0001:000064ae       __invoke_watson            100074ae f   LIBCMT:invarg.obj
 0001:000064d3       __invalid_parameter        100074d3 f   LIBCMT:invarg.obj
 0001:00006500       __invalid_parameter_noinfo 10007500 f   LIBCMT:invarg.obj
 0001:00006510       __heap_init                10007510 f   LIBCMT:heapinit.obj
 0001:0000652e       __heap_term                1000752e f   LIBCMT:heapinit.obj
 0001:00006542       ___crtCorExitProcess       10007542 f   LIBCMT:crt0dat.obj
 0001:0000656d       ___crtExitProcess          1000756d f   LIBCMT:crt0dat.obj
 0001:00006585       __lockexit                 10007585 f   LIBCMT:crt0dat.obj
 0001:0000658e       __unlockexit               1000758e f   LIBCMT:crt0dat.obj
 0001:00006597       __init_pointers            10007597 f   LIBCMT:crt0dat.obj
 0001:000065ca       __initterm_e               100075ca f   LIBCMT:crt0dat.obj
 0001:000065ee       __cinit                    100075ee f   LIBCMT:crt0dat.obj
 0001:000067c5       __exit                     100077c5 f   LIBCMT:crt0dat.obj
 0001:000067db       __cexit                    100077db f   LIBCMT:crt0dat.obj
 0001:000067ea       __amsg_exit                100077ea f   LIBCMT:crt0dat.obj
 0001:00006808       __GET_RTERRMSG             10007808 f   LIBCMT:crt0msg.obj
 0001:0000682e       __NMSG_WRITE               1000782e f   LIBCMT:crt0msg.obj
 0001:000069dd       __FF_MSGBANNER             100079dd f   LIBCMT:crt0msg.obj
 0001:00006a16       __initp_heap_handler       10007a16 f   LIBCMT:handler.obj
 0001:00006a25       __callnewh                 10007a25 f   LIBCMT:handler.obj
 0001:00006a4d       ___sys_nerr                10007a4d f   LIBCMT:syserr.obj
 0001:00006a53       ___sys_errlist             10007a53 f   LIBCMT:syserr.obj
 0001:00006a59       _strcpy_s                  10007a59 f   LIBCMT:strcpy_s.obj
 0001:00006ab8       __malloc_crt               10007ab8 f   LIBCMT:crtheap.obj
 0001:00006afd       __calloc_crt               10007afd f   LIBCMT:crtheap.obj
 0001:00006b49       __realloc_crt              10007b49 f   LIBCMT:crtheap.obj
 0001:00006b97       __encoded_null             10007b97 f   LIBCMT:tidtable.obj
 0001:00006ba0       ___crtTlsAlloc@4           10007ba0 f   LIBCMT:tidtable.obj
 0001:00006ba9       ___set_flsgetvalue         10007ba9 f   LIBCMT:tidtable.obj
 0001:00006bdd       __mtterm                   10007bdd f   LIBCMT:tidtable.obj
 0001:00006c1a       __initptd                  10007c1a f   LIBCMT:tidtable.obj
 0001:00006cce       __getptd_noexit            10007cce f   LIBCMT:tidtable.obj
 0001:00006d47       __getptd                   10007d47 f   LIBCMT:tidtable.obj
 0001:00006d61       __freefls@4                10007d61 f   LIBCMT:tidtable.obj
 0001:00006e90       __freeptd                  10007e90 f   LIBCMT:tidtable.obj
 0001:00006efe       __mtinit                   10007efe f   LIBCMT:tidtable.obj
 0001:00007079       __read_nolock              10008079 f   LIBCMT:read.obj
 0001:00007630       __read                     10008630 f   LIBCMT:read.obj
 0001:00007630       _read                      10008630 f   LIBCMT:read.obj
 0001:00007726       __ioinit                   10008726 f   LIBCMT:ioinit.obj
 0001:0000796b       __ioterm                   1000896b f   LIBCMT:ioinit.obj
 0001:000079be       __lseeki64_nolock          100089be f   LIBCMT:lseeki64.obj
 0001:00007a43       __lseeki64                 10008a43 f   LIBCMT:lseeki64.obj
 0001:00007b2d       __fileno                   10008b2d f   LIBCMT:fileno.obj
 0001:00007b53       @__security_check_cookie@4 10008b53 f   LIBCMT:secchk.obj
 0001:00007b70       __chkstk                   10008b70 f   LIBCMT:chkstk.obj
 0001:00007b70       __alloca_probe             10008b70     LIBCMT:chkstk.obj
 0001:00007b9b       ___iob_func                10008b9b f   LIBCMT:_file.obj
 0001:00007ba1       ___initstdio               10008ba1 f   LIBCMT:_file.obj
 0001:00007c52       ___endstdio                10008c52 f   LIBCMT:_file.obj
 0001:00007c72       __lock_file                10008c72 f   LIBCMT:_file.obj
 0001:00007cb3       __lock_file2               10008cb3 f   LIBCMT:_file.obj
 0001:00007ce5       __unlock_file              10008ce5 f   LIBCMT:_file.obj
 0001:00007d21       __unlock_file2             10008d21 f   LIBCMT:_file.obj
 0001:00007d50       __SEH_prolog4              10008d50 f   LIBCMT:sehprolg4.obj
 0001:00007d95       __SEH_epilog4              10008d95 f   LIBCMT:sehprolg4.obj
 0001:00007db0       __except_handler4          10008db0 f   LIBCMT:chandler4.obj
 0001:00007f3f       __flush                    10008f3f f   LIBCMT:fflush.obj
 0001:00007fa7       __fflush_nolock            10008fa7 f   LIBCMT:fflush.obj
 0001:000080c9       __flushall                 100090c9 f   LIBCMT:fflush.obj
 0001:000080d2       __openfile                 100090d2 f   LIBCMT:_open.obj
 0001:00008369       __getstream                10009369 f   LIBCMT:stream.obj
 0001:000084a0       __local_unwind4            100094a0 f   LIBCMT:exsup4.obj
 0001:00008576       __seh_longjmp_unwind4@4    10009576 f   LIBCMT:exsup4.obj
 0001:00008592       @_EH4_CallFilterFunc@8     10009592 f   LIBCMT:exsup4.obj
 0001:000085a9       @_EH4_TransferToHandler@8  100095a9 f   LIBCMT:exsup4.obj
 0001:000085c2       @_EH4_GlobalUnwind2@8      100095c2 f   LIBCMT:exsup4.obj
 0001:000085db       @_EH4_LocalUnwind@16       100095db f   LIBCMT:exsup4.obj
 0001:000085f2       __filbuf                   100095f2 f   LIBCMT:_filbuf.obj
 0001:00008714       _memcpy_s                  10009714 f   LIBCMT:memcpy_s.obj
 0001:00008790       _memset                    10009790 f   LIBCMT:memset.obj
 0001:0000880a       __write_nolock             1000980a f   LIBCMT:write.obj
 0001:00008f07       __write                    10009f07 f   LIBCMT:write.obj
 0001:00008f07       _write                     10009f07 f   LIBCMT:write.obj
 0001:00008fe0       _memcpy                    10009fe0 f   LIBCMT:memcpy.obj
 0001:00009341       __lseek_nolock             1000a341 f   LIBCMT:lseek.obj
 0001:000093b6       _lseek                     1000a3b6 f   LIBCMT:lseek.obj
 0001:000093b6       __lseek                    1000a3b6 f   LIBCMT:lseek.obj
 0001:0000948a       __close_nolock             1000a48a f   LIBCMT:close.obj
 0001:00009526       _close                     1000a526 f   LIBCMT:close.obj
 0001:00009526       __close                    1000a526 f   LIBCMT:close.obj
 0001:000095ea       __freebuf                  1000a5ea f   LIBCMT:_freebuf.obj
 0001:00009620       __aulldiv                  1000a620 f   LIBCMT:ulldiv.obj
 0001:00009688       __setenvp                  1000a688 f   LIBCMT:stdenvp.obj
 0001:000098fe       __setargv                  1000a8fe f   LIBCMT:stdargv.obj
 0001:000099b9       ___crtGetEnvironmentStringsA 1000a9b9 f   LIBCMT:a_env.obj
 0001:00009a50       __RTC_Initialize           1000aa50 f   LIBCMT:_initsect_.obj
 0001:00009a76       __RTC_Terminate            1000aa76 f   LIBCMT:_initsect_.obj
 0001:00009a9c       __XcptFilter               1000aa9c f   LIBCMT:winxfltr.obj
 0001:00009be6       ___CppXcptFilter           1000abe6 f   LIBCMT:winxfltr.obj
 0001:00009c06       _DllMain@12                1000ac06 f   LIBCMT:dllmain.obj
 0001:00009c0c       ___security_init_cookie    1000ac0c f   LIBCMT:gs_support.obj
 0001:00009ca7       __getbuf                   1000aca7 f   LIBCMT:_getbuf.obj
 0001:00009cf0       __isatty                   1000acf0 f   LIBCMT:isatty.obj
 0001:00009f69       ___updatetmbcinfo          1000af69 f   LIBCMT:mbctype.obj
 0001:0000a089       __setmbcp_nolock           1000b089 f   LIBCMT:mbctype.obj
 0001:0000a272       __setmbcp                  1000b272 f   LIBCMT:mbctype.obj
 0001:0000a40c       ___initmbctable            1000b40c f   LIBCMT:mbctype.obj
 0001:0000a42a       ___addlocaleref            1000b42a f   LIBCMT:localref.obj
 0001:0000a4b9       ___removelocaleref         1000b4b9 f   LIBCMT:localref.obj
 0001:0000a552       ___freetlocinfo            1000b552 f   LIBCMT:localref.obj
 0001:0000a69d       __updatetlocinfoEx_nolock  1000b69d f   LIBCMT:localref.obj
 0001:0000a6ea       ___updatetlocinfo          1000b6ea f   LIBCMT:localref.obj
 0001:0000a763       __initp_misc_cfltcvt_tab   1000b763 f   LIBCMT:cmiscdat.obj
 0001:0000a786       __get_printf_count_output  1000b786 f   LIBCMT:printf.obj
 0001:0000a7a0       _strlen                    1000b7a0 f   LIBCMT:strlen.obj
 0001:0000a82b       __wctomb_s_l               1000b82b f   LIBCMT:wctomb.obj
 0001:0000a980       _wctomb_s                  1000b980 f   LIBCMT:wctomb.obj
 0001:0000a99d       __isleadbyte_l             1000b99d f i LIBCMT:_wctype.obj
 0001:0000a9d5       _isleadbyte                1000b9d5 f i LIBCMT:_wctype.obj
 0001:0000a9f0       __aulldvrm                 1000b9f0 f   LIBCMT:ulldvrm.obj
 0001:0000aa85       __crt_debugger_hook        1000ba85 f   LIBCMT:dbghook.obj
 0001:0000aa8d       __mtinitlocks              1000ba8d f   LIBCMT:mlock.obj
 0001:0000aad7       __mtdeletelocks            1000bad7 f   LIBCMT:mlock.obj
 0001:0000ab2e       __unlock                   1000bb2e f   LIBCMT:mlock.obj
 0001:0000ab45       __mtinitlocknum            1000bb45 f   LIBCMT:mlock.obj
 0001:0000ac07       __lock                     1000bc07 f   LIBCMT:mlock.obj
 0001:0000ac3a       ?terminate@@YAXXZ          1000bc3a f   LIBCMT:hooks.obj
 0001:0000ac73       __initp_eh_hooks           1000bc73 f   LIBCMT:hooks.obj
 0001:0000ac84       __initp_misc_winsig        1000bc84 f   LIBCMT:winsig.obj
 0001:0000acd9       ___get_sigabrt             1000bcd9 f   LIBCMT:winsig.obj
 0001:0000ace6       _raise                     1000bce6 f   LIBCMT:winsig.obj
 0001:0000ae89       __initp_misc_rand_s        1000be89 f   LIBCMT:rand_s.obj
 0001:0000ae98       __initp_misc_purevirt      1000be98 f   LIBCMT:inithelp.obj
 0001:0000af5d       ___onexitinit              1000bf5d f   LIBCMT:onexit.obj
 0001:0000af8e       __onexit                   1000bf8e f   LIBCMT:onexit.obj
 0001:0000afca       _atexit                    1000bfca f   LIBCMT:onexit.obj
 0001:0000aff0       __ValidateImageBase        1000bff0 f   LIBCMT:pesect.obj
 0001:0000b030       __FindPESection            1000c030 f   LIBCMT:pesect.obj
 0001:0000b080       __IsNonwritableInCurrentImage 1000c080 f   LIBCMT:pesect.obj
 0001:0000b13c       ___crtMessageBoxW          1000c13c f   LIBCMT:crtmboxw.obj
 0001:0000b2a8       _wcscat_s                  1000c2a8 f   LIBCMT:wcscat_s.obj
 0001:0000b31d       _wcsncpy_s                 1000c31d f   LIBCMT:wcsncpy_s.obj
 0001:0000b3ea       _wcslen                    1000c3ea f   LIBCMT:wcslen.obj
 0001:0000b405       _wcscpy_s                  1000c405 f   LIBCMT:wcscpy_s.obj
 0001:0000b468       __set_error_mode           1000c468 f   LIBCMT:errmode.obj
 0001:0000b4a7       __calloc_impl              1000c4a7 f   LIBCMT:calloc_impl.obj
 0001:0000b529       _realloc                   1000c529 f   LIBCMT:realloc.obj
 0001:0000b5d6       __set_osfhnd               1000c5d6 f   LIBCMT:osfinfo.obj
 0001:0000b657       __free_osfhnd              1000c657 f   LIBCMT:osfinfo.obj
 0001:0000b6dd       __get_osfhandle            1000c6dd f   LIBCMT:osfinfo.obj
 0001:0000b746       ___lock_fhandle            1000c746 f   LIBCMT:osfinfo.obj
 0001:0000b7e5       __unlock_fhandle           1000c7e5 f   LIBCMT:osfinfo.obj
 0001:0000b80c       __alloc_osfhnd             1000c80c f   LIBCMT:osfinfo.obj
 0001:0000b9a5       ___report_gsfailure        1000c9a5 f   LIBCMT:gs_report.obj
 0001:0000baab       __fcloseall                1000caab f   LIBCMT:closeall.obj
 0001:0000bb47       __commit                   1000cb47 f   LIBCMT:commit.obj
 0001:0000c354       _open                      1000d354 f   LIBCMT:open.obj
 0001:0000c354       __open                     1000d354 f   LIBCMT:open.obj
 0001:0000c402       __sopen_helper             1000d402 f   LIBCMT:open.obj
 0001:0000c4c6       __sopen_s                  1000d4c6 f   LIBCMT:open.obj
 0001:0000c4e6       __mbsnbicmp_l              1000d4e6 f   LIBCMT:mbsnbicm.obj
 0001:0000c6ea       __mbsnbicmp                1000d6ea f   LIBCMT:mbsnbicm.obj
 0001:0000c704       __mbsnbcmp_l               1000d704 f   LIBCMT:mbsnbcmp.obj
 0001:0000c850       __mbsnbcmp                 1000d850 f   LIBCMT:mbsnbcmp.obj
 0001:0000c870       __global_unwind2           1000d870 f   LIBCMT:exsup.obj
 0001:0000c8d5       __local_unwind2            1000d8d5 f   LIBCMT:exsup.obj
 0001:0000c959       __abnormal_termination     1000d959 f   LIBCMT:exsup.obj
 0001:0000c97c       __NLG_Notify1              1000d97c f   LIBCMT:exsup.obj
 0001:0000c985       __NLG_Notify               1000d985 f   LIBCMT:exsup.obj
 0001:0000c99c       __NLG_Dispatch2            1000d99c     LIBCMT:exsup.obj
 0001:0000c99c       __NLG_Dispatch             1000d99c     LIBCMT:exsup.obj
 0001:0000c9a4       __NLG_Call                 1000d9a4 f   LIBCMT:exsup.obj
 0001:0000c9a6       __NLG_Return2              1000d9a6     LIBCMT:exsup.obj
 0001:0000c9a7       __VEC_memzero              1000d9a7 f   LIBCMT:p4_memset.obj
 0001:0000ca61       ___sse2_available_init     1000da61 f   LIBCMT:cpu_disp.obj
 0001:0000ca71       __putwch_nolock            1000da71 f   LIBCMT:putwch.obj
 0001:0000cab3       __mbtowc_l                 1000dab3 f   LIBCMT:mbtowc.obj
 0001:0000cbc9       _mbtowc                    1000dbc9 f   LIBCMT:mbtowc.obj
 0001:0000cbe3       __VEC_memcpy               1000dbe3 f   LIBCMT:p4_memcpy.obj
 0001:0000cd39       __ismbblead                1000dd39 f   LIBCMT:ismbbyte.obj
 0001:0000cd51       __freea                    1000dd51 f i LIBCMT:a_map.obj
 0001:0000cf58       ___crtLCMapStringA         1000df58 f   LIBCMT:a_map.obj
 0001:0000d085       ___crtGetStringTypeA       1000e085 f   LIBCMT:a_str.obj
 0001:0000d0c5       ___free_lc_time            1000e0c5 f   LIBCMT:inittime.obj
 0001:0000d43c       ___free_lconv_num          1000e43c f   LIBCMT:initnum.obj
 0001:0000d4a5       ___free_lconv_mon          1000e4a5 f   LIBCMT:initmon.obj
 0001:0000d5a3       __fptrap                   1000e5a3 f   LIBCMT:crt0fp.obj
 0001:0000d5ac       _abort                     1000e5ac f   LIBCMT:abort.obj
 0001:0000d5df       __msize                    1000e5df f   LIBCMT:msize.obj
 0001:0000d612       __chsize_nolock            1000e612 f   LIBCMT:chsize.obj
 0001:0000d7c8       __setmode_nolock           1000e7c8 f   LIBCMT:setmode.obj
 0001:0000d883       __get_fmode                1000e883 f   LIBCMT:setmode.obj
 0001:0000d8b0       __strnicmp_l               1000e8b0 f   LIBCMT:strnicmp.obj
 0001:0000d992       __strnicmp                 1000e992 f   LIBCMT:strnicmp.obj
 0001:0000d9e5       _strncmp                   1000e9e5 f   LIBCMT:strncmp.obj
 0001:0000daa5       ___initconout              1000eaa5 f   LIBCMT:initcon.obj
 0001:0000dac4       ___termconout              1000eac4 f   LIBCMT:initcon.obj
 0001:0000dae0       __alloca_probe_16          1000eae0 f   LIBCMT:alloca16.obj
 0001:0000daf6       __alloca_probe_8           1000eaf6     LIBCMT:alloca16.obj
 0001:0000db0c       __isctype_l                1000eb0c f   LIBCMT:isctype.obj
 0001:0000dbc4       __tolower_l                1000ebc4 f   LIBCMT:tolower.obj
 0001:0000dce0       ___ascii_strnicmp          1000ece0 f   LIBCMT:_strnicm.obj
 0001:0000dd50       _strcspn                   1000ed50 f   LIBCMT:strcspn.obj
 0001:0000dda0       _strcmp                    1000eda0 f   LIBCMT:strcmp.obj
 0001:0000de30       _strpbrk                   1000ee30 f   LIBCMT:strpbrk.obj
 0001:0000de70       __allmul                   1000ee70 f   LIBCMT:llmul.obj
 0001:0000dea4       _RtlUnwind@16              1000eea4 f   kernel32:KERNEL32.dll
 0001:0000f7eb       _zError@4                  100107eb f   zutil.obj
 0001:0000f805       _zlibCompileFlags@0        10010805 f   zutil.obj
 0001:0000f80b       _zlibVersion@0             1001080b f   zutil.obj
 0001:0000f98e       _unzeof@4                  1001098e f   unzip.obj
 0001:0000f9c8       _unztell64@4               100109c8 f   unzip.obj
 0001:0000f9f0       _unztell@4                 100109f0 f   unzip.obj
 0001:0000fa14       _unzGetCurrentFileZStreamPos64@4 10010a14 f   unzip.obj
 0001:0000fa46       _unzGetFilePos64@8         10010a46 f   unzip.obj
 0001:0000faf9       _unzGetGlobalInfo@8        10010af9 f   unzip.obj
 0001:0000fb20       _unzGetGlobalInfo64@8      10010b20 f   unzip.obj
 0001:0000fc20       __tr_align                 10010c20 f   trees.obj
 0001:0000fe1d       _win32_error_file_func     10010e1d f   iowin32.obj
 0001:0000fe2f       _win32_close_file_func     10010e2f f   iowin32.obj
 0001:0000fe5c       _win32_seek64_file_func    10010e5c f   iowin32.obj
 0001:0000feb9       _win32_seek_file_func      10010eb9 f   iowin32.obj
 0001:0000ff14       _win32_tell64_file_func    10010f14 f   iowin32.obj
 0001:0000ff76       _win32_tell_file_func      10010f76 f   iowin32.obj
 0001:0000ffab       _win32_write_file_func     10010fab f   iowin32.obj
 0001:0000fff2       _win32_read_file_func      10010ff2 f   iowin32.obj
 0001:000101f1       _call_ztell64              100111f1 f   ioapi.obj
 0001:00010227       _call_zseek64              10011227 f   ioapi.obj
 0001:0001027a       _call_zopen64              1001127a f   ioapi.obj
 0001:000102aa       _inflateMark@4             100112aa f   inflate.obj
 0001:0001030b       _inflateUndermine@8        1001130b f   inflate.obj
 0001:00010338       _inflateCopy@8             10011338 f   inflate.obj
 0001:0001048b       _inflateSyncPoint@4        1001148b f   inflate.obj
 0001:00010517       _inflateGetHeader@8        10011517 f   inflate.obj
 0001:0001054a       _inflatePrime@12           1001154a f   inflate.obj
 0001:000105b2       _inflateBackEnd@4          100115b2 f   infback.obj
 0001:000105ed       _inflateBackInit_@20       100115ed f   infback.obj
 0001:000106af       _gz_error                  100116af f   gzlib.obj
 0001:0001079a       _gzclearerr@4              1001179a f   gzlib.obj
 0001:000107df       _gzerror@8                 100117df f   gzlib.obj
 0001:0001081d       _gzeof@4                   1001181d f   gzlib.obj
 0001:00010852       _gzoffset64@4              10011852 f   gzlib.obj
 0001:0001089a       _gztell64@4                1001189a f   gzlib.obj
 0001:000108da       _gzbuffer@8                100118da f   gzlib.obj
 0001:0001094d       _deflateBound@8            1001194d f   deflate.obj
 0001:00010a20       _deflateTune@20            10011a20 f   deflate.obj
 0001:00010a61       _deflatePrime@12           10011a61 f   deflate.obj
 0001:00010aa4       _deflateSetHeader@8        10011aa4 f   deflate.obj
 0001:00010dae       _crc32@12                  10011dae f   crc32.obj
 0001:00010dd1       _get_crc_table@0           10011dd1 f   crc32.obj
 0001:00010dd7       _compressBound@4           10011dd7 f   compress.obj
 0001:00010e92       _Write_GlobalComment       10011e92 f   zip.obj
 0001:00010ef6       _Write_EndOfCentralDirectoryRecord 10011ef6 f   zip.obj
 0001:0001103a       _Write_Zip64EndOfCentralDirectoryRecord 1001203a f   zip.obj
 0001:0001115b       _Write_Zip64EndOfCentralDirectoryLocator 1001215b f   zip.obj
 0001:000112e3       _Write_LocalFileHeader     100122e3 f   zip.obj
 0001:00011a16       _unzGetGlobalComment@12    10012a16 f   unzip.obj
 0001:00011aa4       _unzCloseCurrentFile@4     10012aa4 f   unzip.obj
 0001:00011b38       _unzGetLocalExtrafield@12  10012b38 f   unzip.obj
 0001:00011bf3       _unzGetFilePos@8           10012bf3 f   unzip.obj
 0001:00011c1e       _unzClose@4                10012c1e f   unzip.obj
 0001:00011c5d       _unzStringFileNameCompare@12 10012c5d f   unzip.obj
 0001:00011f7a       __tr_stored_block          10012f7a f   trees.obj
 0001:0001201c       _win32_open64_file_funcW   1001301c f   iowin32.obj
 0001:00012075       _win32_open64_file_funcA   10013075 f   iowin32.obj
 0001:00012075       _win32_open_file_func      10013075 f   iowin32.obj
 0001:00012075       _win32_open64_file_func    10013075 f   iowin32.obj
 0001:000120ce       _inflateSync@4             100130ce f   inflate.obj
 0001:000121bc       _inflateSetDictionary@12   100131bc f   inflate.obj
 0001:0001229b       _inflateBack@20            1001329b f   infback.obj
 0001:00012f8f       _gzclose_r@4               10013f8f f   gzread.obj
 0001:00013071       _gzoffset@4                10014071 f   gzlib.obj
 0001:00013078       _gztell@4                  10014078 f   gzlib.obj
 0001:0001307f       _gzrewind@4                1001407f f   gzlib.obj
 0001:0001335e       _deflateCopy@8             1001435e f   deflate.obj
 0001:000134fd       _deflateSetDictionary@12   100144fd f   deflate.obj
 0001:00013624       _adler32_combine@12        10014624 f   adler32.obj
 0001:00013ad6       _unzReadCurrentFile@12     10014ad6 f   unzip.obj
 0001:000146f6       _fill_win32_filefunc64W    100156f6 f   iowin32.obj
 0001:00014735       _fill_win32_filefunc64     10015735 f   iowin32.obj
 0001:00014735       _fill_win32_filefunc64A    10015735 f   iowin32.obj
 0001:00014774       _fill_win32_filefunc       10015774 f   iowin32.obj
 0001:000148ba       _gzseek64@12               100158ba f   gzlib.obj
 0001:000149c4       _gzdopen@8                 100159c4 f   gzlib.obj
 0001:00014a13       _gzopen@8                  10015a13 f   gzlib.obj
 0001:00014af0       _LoadCentralDirectoryRecord 10015af0 f   zip.obj
 0001:00014fe1       _unzOpenCurrentFile3@20    10015fe1 f   unzip.obj
 0001:0001520e       _unzGoToFilePos64@8        1001620e f   unzip.obj
 0001:0001527b       _unzGoToNextFile@4         1001627b f   unzip.obj
 0001:00015329       _unzGoToFirstFile@4        10016329 f   unzip.obj
 0001:00015390       _unzGetCurrentFileInfo@32  10016390 f   unzip.obj
 0001:00015467       _unzGetCurrentFileInfo64@32 10016467 f   unzip.obj
 0001:00015e3e       _gzseek@12                 10016e3e f   gzlib.obj
 0001:0001662f       _deflateParams@12          1001762f f   deflate.obj
 0001:00016727       _crc32_combine@12          10017727 f   crc32.obj
 0001:00016742       _compress2@20              10017742 f   compress.obj
 0001:000167e4       _zipCloseFileInZipRaw64@16 100177e4 f   zip.obj
 0001:00016c84       _zipCloseFileInZipRaw@12   10017c84 f   zip.obj
 0001:00016c9e       _zipWriteInFileInZip@12    10017c9e f   zip.obj
 0001:00016d97       _zipOpen3@16               10017d97 f   zip.obj
 0001:00016f2e       _unzOpenCurrentFile2@16    10017f2e f   unzip.obj
 0001:00016f4c       _unzOpenCurrentFilePassword@8 10017f4c f   unzip.obj
 0001:00016f66       _unzOpenCurrentFile@4      10017f66 f   unzip.obj
 0001:00016f7e       _unzGoToFilePos@8          10017f7e f   unzip.obj
 0001:00016fc2       _unzLocateFile@12          10017fc2 f   unzip.obj
 0001:000170fc       _unzOpen64@4               100180fc f   unzip.obj
 0001:00017113       _unzOpen@4                 10018113 f   unzip.obj
 0001:0001712a       _unzOpen2_64@8             1001812a f   unzip.obj
 0001:00017181       _unzOpen2@8                10018181 f   unzip.obj
 0001:000171fb       _uncompress@16             100181fb f   uncompr.obj
 0001:00017380       _gzdirect@4                10018380 f   gzread.obj
 0001:00017535       _compress@16               10018535 f   compress.obj
 0001:00017553       _zipCloseFileInZip@4       10018553 f   zip.obj
 0001:00017567       _zipOpenNewFileInZip4_64@76 10018567 f   zip.obj
 0001:00017a20       _zipOpen64@8               10018a20 f   zip.obj
 0001:00017a20       _zipOpen@8                 10018a20 f   zip.obj
 0001:00017a38       _zipOpen2_64@16            10018a38 f   zip.obj
 0001:00017a7d       _zipOpen2@16               10018a7d f   zip.obj
 0001:00017bfe       _zipClose@8                10018bfe f   zip.obj
 0001:00017d5e       _zipOpenNewFileInZip@40    10018d5e f   zip.obj
 0001:00017da4       _zipOpenNewFileInZip64@44  10018da4 f   zip.obj
 0001:00017dec       _zipOpenNewFileInZip2_64@48 10018dec f   zip.obj
 0001:00017e36       _zipOpenNewFileInZip2@44   10018e36 f   zip.obj
 0001:00017e7e       _zipOpenNewFileInZip3_64@68 10018e7e f   zip.obj
 0001:00017ed2       _zipOpenNewFileInZip3@64   10018ed2 f   zip.obj
 0001:00017f24       _gzclose_w@4               10018f24 f   gzwrite.obj
 0001:00017fb7       _gzsetparams@12            10018fb7 f   gzwrite.obj
 0001:00018054       _gzflush@8                 10019054 f   gzwrite.obj
 0001:000180cd       _gzprintf                  100190cd f   gzwrite.obj
 0001:00018193       _gzwrite@12                10019193 f   gzwrite.obj
 0001:000182f7       _gzclose@4                 100192f7 f   gzclose.obj
 0001:00018325       _gzputs@8                  10019325 f   gzwrite.obj
 0001:0001835b       _gzputc@8                  1001935b f   gzwrite.obj
 0001:000183ea       _gzgets@12                 100193ea f   gzread.obj
 0001:000184d7       _gzungetc@8                100194d7 f   gzread.obj
 0001:0001859b       _gzread@12                 1001959b f   gzread.obj
 0001:000186eb       _gzgetc@4                  100196eb f   gzread.obj
 0002:00000000       __imp__CreateFileA@28      1001a000     kernel32:KERNEL32.dll
 0002:00000004       __imp__SetFilePointer@16   1001a004     kernel32:KERNEL32.dll
 0002:00000008       __imp__WriteFile@20        1001a008     kernel32:KERNEL32.dll
 0002:0000000c       __imp__ReadFile@20         1001a00c     kernel32:KERNEL32.dll
 0002:00000010       __imp__CreateFileW@28      1001a010     kernel32:KERNEL32.dll
 0002:00000014       __imp__GetLastError@0      1001a014     kernel32:KERNEL32.dll
 0002:00000018       __imp__CloseHandle@4       1001a018     kernel32:KERNEL32.dll
 0002:0000001c       __imp__HeapFree@12         1001a01c     kernel32:KERNEL32.dll
 0002:00000020       __imp__HeapAlloc@12        1001a020     kernel32:KERNEL32.dll
 0002:00000024       __imp__GetSystemTimeAsFileTime@4 1001a024     kernel32:KERNEL32.dll
 0002:00000028       __imp__GetCurrentThreadId@0 1001a028     kernel32:KERNEL32.dll
 0002:0000002c       __imp__DecodePointer@4     1001a02c     kernel32:KERNEL32.dll
 0002:00000030       __imp__GetCommandLineA@0   1001a030     kernel32:KERNEL32.dll
 0002:00000034       __imp__UnhandledExceptionFilter@4 1001a034     kernel32:KERNEL32.dll
 0002:00000038       __imp__SetUnhandledExceptionFilter@4 1001a038     kernel32:KERNEL32.dll
 0002:0000003c       __imp__IsDebuggerPresent@0 1001a03c     kernel32:KERNEL32.dll
 0002:00000040       __imp__EncodePointer@4     1001a040     kernel32:KERNEL32.dll
 0002:00000044       __imp__TerminateProcess@8  1001a044     kernel32:KERNEL32.dll
 0002:00000048       __imp__GetCurrentProcess@0 1001a048     kernel32:KERNEL32.dll
 0002:0000004c       __imp__HeapCreate@12       1001a04c     kernel32:KERNEL32.dll
 0002:00000050       __imp__HeapDestroy@4       1001a050     kernel32:KERNEL32.dll
 0002:00000054       __imp__GetProcAddress@8    1001a054     kernel32:KERNEL32.dll
 0002:00000058       __imp__GetModuleHandleW@4  1001a058     kernel32:KERNEL32.dll
 0002:0000005c       __imp__ExitProcess@4       1001a05c     kernel32:KERNEL32.dll
 0002:00000060       __imp__GetStdHandle@4      1001a060     kernel32:KERNEL32.dll
 0002:00000064       __imp__GetModuleFileNameW@12 1001a064     kernel32:KERNEL32.dll
 0002:00000068       __imp__Sleep@4             1001a068     kernel32:KERNEL32.dll
 0002:0000006c       __imp__TlsAlloc@0          1001a06c     kernel32:KERNEL32.dll
 0002:00000070       __imp__TlsGetValue@4       1001a070     kernel32:KERNEL32.dll
 0002:00000074       __imp__TlsSetValue@8       1001a074     kernel32:KERNEL32.dll
 0002:00000078       __imp__TlsFree@4           1001a078     kernel32:KERNEL32.dll
 0002:0000007c       __imp__InterlockedIncrement@4 1001a07c     kernel32:KERNEL32.dll
 0002:00000080       __imp__SetLastError@4      1001a080     kernel32:KERNEL32.dll
 0002:00000084       __imp__InterlockedDecrement@4 1001a084     kernel32:KERNEL32.dll
 0002:00000088       __imp__MultiByteToWideChar@24 1001a088     kernel32:KERNEL32.dll
 0002:0000008c       __imp__SetHandleCount@4    1001a08c     kernel32:KERNEL32.dll
 0002:00000090       __imp__InitializeCriticalSectionAndSpinCount@8 1001a090     kernel32:KERNEL32.dll
 0002:00000094       __imp__GetFileType@4       1001a094     kernel32:KERNEL32.dll
 0002:00000098       __imp__GetStartupInfoW@4   1001a098     kernel32:KERNEL32.dll
 0002:0000009c       __imp__DeleteCriticalSection@4 1001a09c     kernel32:KERNEL32.dll
 0002:000000a0       __imp__EnterCriticalSection@4 1001a0a0     kernel32:KERNEL32.dll
 0002:000000a4       __imp__LeaveCriticalSection@4 1001a0a4     kernel32:KERNEL32.dll
 0002:000000a8       __imp__RtlUnwind@16        1001a0a8     kernel32:KERNEL32.dll
 0002:000000ac       __imp__WideCharToMultiByte@32 1001a0ac     kernel32:KERNEL32.dll
 0002:000000b0       __imp__GetConsoleCP@0      1001a0b0     kernel32:KERNEL32.dll
 0002:000000b4       __imp__GetConsoleMode@8    1001a0b4     kernel32:KERNEL32.dll
 0002:000000b8       __imp__GetModuleFileNameA@12 1001a0b8     kernel32:KERNEL32.dll
 0002:000000bc       __imp__FreeEnvironmentStringsW@4 1001a0bc     kernel32:KERNEL32.dll
 0002:000000c0       __imp__GetEnvironmentStringsW@0 1001a0c0     kernel32:KERNEL32.dll
 0002:000000c4       __imp__QueryPerformanceCounter@4 1001a0c4     kernel32:KERNEL32.dll
 0002:000000c8       __imp__GetTickCount@0      1001a0c8     kernel32:KERNEL32.dll
 0002:000000cc       __imp__GetCurrentProcessId@0 1001a0cc     kernel32:KERNEL32.dll
 0002:000000d0       __imp__GetCPInfo@8         1001a0d0     kernel32:KERNEL32.dll
 0002:000000d4       __imp__GetACP@0            1001a0d4     kernel32:KERNEL32.dll
 0002:000000d8       __imp__GetOEMCP@0          1001a0d8     kernel32:KERNEL32.dll
 0002:000000dc       __imp__IsValidCodePage@4   1001a0dc     kernel32:KERNEL32.dll
 0002:000000e0       __imp__LoadLibraryW@4      1001a0e0     kernel32:KERNEL32.dll
 0002:000000e4       __imp__HeapReAlloc@16      1001a0e4     kernel32:KERNEL32.dll
 0002:000000e8       __imp__SetStdHandle@8      1001a0e8     kernel32:KERNEL32.dll
 0002:000000ec       __imp__FlushFileBuffers@4  1001a0ec     kernel32:KERNEL32.dll
 0002:000000f0       __imp__IsProcessorFeaturePresent@4 1001a0f0     kernel32:KERNEL32.dll
 0002:000000f4       __imp__WriteConsoleW@20    1001a0f4     kernel32:KERNEL32.dll
 0002:000000f8       __imp__LCMapStringW@24     1001a0f8     kernel32:KERNEL32.dll
 0002:000000fc       __imp__GetStringTypeW@16   1001a0fc     kernel32:KERNEL32.dll
 0002:00000100       __imp__HeapSize@12         1001a100     kernel32:KERNEL32.dll
 0002:00000104       __imp__SetEndOfFile@4      1001a104     kernel32:KERNEL32.dll
 0002:00000108       __imp__GetProcessHeap@0    1001a108     kernel32:KERNEL32.dll
 0002:0000010c       \177KERNEL32_NULL_THUNK_DATA 1001a10c     kernel32:KERNEL32.dll
 0002:00000110       ___xc_a                    1001a110     LIBCMT:crt0init.obj
 0002:00000114       ___xc_z                    1001a114     LIBCMT:crt0init.obj
 0002:00000118       ___xi_a                    1001a118     LIBCMT:crt0init.obj
 0002:0000012c       ___xi_z                    1001a12c     LIBCMT:crt0init.obj
 0002:00000130       ___xp_a                    1001a130     LIBCMT:crt0init.obj
 0002:0000013c       ___xp_z                    1001a13c     LIBCMT:crt0init.obj
 0002:00000140       ___xt_a                    1001a140     LIBCMT:crt0init.obj
 0002:00000144       ___xt_z                    1001a144     LIBCMT:crt0init.obj
 0002:00000148       ??_C@_0EA@FCLIIPNN@Visual?5C?$CL?$CL?5CRT?3?5Not?5enough?5memor@ 1001a148     LIBCMT:strerror.obj
 0002:00000188       __pRawDllMain              1001a188     LIBCMT:dllcrt0.obj
 0002:00000188       __pDefaultRawDllMain       1001a188     LIBCMT:dllcrt0.obj
 0002:0000018c       ??_C@_1O@CEDCILHN@?$AA?$CI?$AAn?$AAu?$AAl?$AAl?$AA?$CJ?$AA?$AA@ 1001a18c     LIBCMT:output.obj
 0002:0000019c       ??_C@_06OJHGLDPL@?$CInull?$CJ?$AA@ 1001a19c     LIBCMT:output.obj
 0002:000001a8       ___lookuptable             1001a1a8     LIBCMT:output.obj
 0002:00000204       ??_C@_0P@MIGLKIOC@CorExitProcess?$AA@ 1001a204     LIBCMT:crt0dat.obj
 0002:00000214       ??_C@_1BI@BGOHAHKC@?$AAm?$AAs?$AAc?$AAo?$AAr?$AAe?$AAe?$AA?4?$AAd?$AAl?$AAl?$AA?$AA@ 1001a214     LIBCMT:crt0dat.obj
 0002:0000022c       ??_C@_1BO@BKOMIGKJ@?$AAr?$AAu?$AAn?$AAt?$AAi?$AAm?$AAe?$AA?5?$AAe?$AAr?$AAr?$AAo?$AAr?$AA?5?$AA?$AA@ 1001a22c     LIBCMT:crt0msg.obj
 0002:0000024c       ??_C@_15JNBOKNOG@?$AA?$AN?$AA?6?$AA?$AA@ 1001a24c     LIBCMT:crt0msg.obj
 0002:00000254       ??_C@_1BM@JBBEPPHI@?$AAT?$AAL?$AAO?$AAS?$AAS?$AA?5?$AAe?$AAr?$AAr?$AAo?$AAr?$AA?$AN?$AA?6?$AA?$AA@ 1001a254     LIBCMT:crt0msg.obj
 0002:00000270       ??_C@_1BK@KMOMNAAI@?$AAS?$AAI?$AAN?$AAG?$AA?5?$AAe?$AAr?$AAr?$AAo?$AAr?$AA?$AN?$AA?6?$AA?$AA@ 1001a270     LIBCMT:crt0msg.obj
 0002:0000028c       ??_C@_1BO@BFCDCGC@?$AAD?$AAO?$AAM?$AAA?$AAI?$AAN?$AA?5?$AAe?$AAr?$AAr?$AAo?$AAr?$AA?$AN?$AA?6?$AA?$AA@ 1001a28c     LIBCMT:crt0msg.obj
 0002:000002b0       ??_C@_1BOO@KGEDBGAJ@?$AAR?$AA6?$AA0?$AA3?$AA3?$AA?$AN?$AA?6?$AA?9?$AA?5?$AAA?$AAt?$AAt?$AAe?$AAm?$AAp?$AAt?$AA?5?$AAt?$AAo?$AA?5?$AAu?$AAs?$AAe?$AA?5?$AAM?$AAS?$AAI?$AAL?$AA?5?$AAc?$AAo?$AAd@ 1001a2b0     LIBCMT:crt0msg.obj
 0002:000004a0       ??_C@_1GG@GOPILAJP@?$AAR?$AA6?$AA0?$AA3?$AA2?$AA?$AN?$AA?6?$AA?9?$AA?5?$AAn?$AAo?$AAt?$AA?5?$AAe?$AAn?$AAo?$AAu?$AAg?$AAh?$AA?5?$AAs?$AAp?$AAa?$AAc?$AAe?$AA?5?$AAf?$AAo?$AAr?$AA?5?$AAl?$AAo@ 1001a4a0     LIBCMT:crt0msg.obj
 0002:00000508       ??_C@_1MG@ENCOOIDF@?$AAR?$AA6?$AA0?$AA3?$AA1?$AA?$AN?$AA?6?$AA?9?$AA?5?$AAA?$AAt?$AAt?$AAe?$AAm?$AAp?$AAt?$AA?5?$AAt?$AAo?$AA?5?$AAi?$AAn?$AAi?$AAt?$AAi?$AAa?$AAl?$AAi?$AAz?$AAe?$AA?5?$AAt@ 1001a508     LIBCMT:crt0msg.obj
 0002:000005d0       ??_C@_1DO@BMFCDCD@?$AAR?$AA6?$AA0?$AA3?$AA0?$AA?$AN?$AA?6?$AA?9?$AA?5?$AAC?$AAR?$AAT?$AA?5?$AAn?$AAo?$AAt?$AA?5?$AAi?$AAn?$AAi?$AAt?$AAi?$AAa?$AAl?$AAi?$AAz?$AAe?$AAd?$AA?$AN?$AA?6?$AA?$AA@ 1001a5d0     LIBCMT:crt0msg.obj
 0002:00000610       ??_C@_1EK@HHFLMAOL@?$AAR?$AA6?$AA0?$AA2?$AA8?$AA?$AN?$AA?6?$AA?9?$AA?5?$AAu?$AAn?$AAa?$AAb?$AAl?$AAe?$AA?5?$AAt?$AAo?$AA?5?$AAi?$AAn?$AAi?$AAt?$AAi?$AAa?$AAl?$AAi?$AAz?$AAe?$AA?5?$AAh?$AAe@ 1001a610     LIBCMT:crt0msg.obj
 0002:00000660       ??_C@_1GK@MFGOKLAG@?$AAR?$AA6?$AA0?$AA2?$AA7?$AA?$AN?$AA?6?$AA?9?$AA?5?$AAn?$AAo?$AAt?$AA?5?$AAe?$AAn?$AAo?$AAu?$AAg?$AAh?$AA?5?$AAs?$AAp?$AAa?$AAc?$AAe?$AA?5?$AAf?$AAo?$AAr?$AA?5?$AAl?$AAo@ 1001a660     LIBCMT:crt0msg.obj
 0002:000006d0       ??_C@_1GK@MCAAGJMO@?$AAR?$AA6?$AA0?$AA2?$AA6?$AA?$AN?$AA?6?$AA?9?$AA?5?$AAn?$AAo?$AAt?$AA?5?$AAe?$AAn?$AAo?$AAu?$AAg?$AAh?$AA?5?$AAs?$AAp?$AAa?$AAc?$AAe?$AA?5?$AAf?$AAo?$AAr?$AA?5?$AAs?$AAt@ 1001a6d0     LIBCMT:crt0msg.obj
 0002:00000740       ??_C@_1EM@MAADIHMB@?$AAR?$AA6?$AA0?$AA2?$AA5?$AA?$AN?$AA?6?$AA?9?$AA?5?$AAp?$AAu?$AAr?$AAe?$AA?5?$AAv?$AAi?$AAr?$AAt?$AAu?$AAa?$AAl?$AA?5?$AAf?$AAu?$AAn?$AAc?$AAt?$AAi?$AAo?$AAn?$AA?5?$AAc@ 1001a740     LIBCMT:crt0msg.obj
 0002:00000790       ??_C@_1GK@FHCKBEFA@?$AAR?$AA6?$AA0?$AA2?$AA4?$AA?$AN?$AA?6?$AA?9?$AA?5?$AAn?$AAo?$AAt?$AA?5?$AAe?$AAn?$AAo?$AAu?$AAg?$AAh?$AA?5?$AAs?$AAp?$AAa?$AAc?$AAe?$AA?5?$AAf?$AAo?$AAr?$AA?5?$AA_?$AAo@ 1001a790     LIBCMT:crt0msg.obj
 0002:00000800       ??_C@_1FC@ECHBIFBC@?$AAR?$AA6?$AA0?$AA1?$AA9?$AA?$AN?$AA?6?$AA?9?$AA?5?$AAu?$AAn?$AAa?$AAb?$AAl?$AAe?$AA?5?$AAt?$AAo?$AA?5?$AAo?$AAp?$AAe?$AAn?$AA?5?$AAc?$AAo?$AAn?$AAs?$AAo?$AAl?$AAe?$AA?5@ 1001a800     LIBCMT:crt0msg.obj
 0002:00000858       ??_C@_1EC@JIBHAOPH@?$AAR?$AA6?$AA0?$AA1?$AA8?$AA?$AN?$AA?6?$AA?9?$AA?5?$AAu?$AAn?$AAe?$AAx?$AAp?$AAe?$AAc?$AAt?$AAe?$AAd?$AA?5?$AAh?$AAe?$AAa?$AAp?$AA?5?$AAe?$AAr?$AAr?$AAo?$AAr?$AA?$AN?$AA?6@ 1001a858     LIBCMT:crt0msg.obj
 0002:000008a0       ??_C@_1FK@BEOGODMC@?$AAR?$AA6?$AA0?$AA1?$AA7?$AA?$AN?$AA?6?$AA?9?$AA?5?$AAu?$AAn?$AAe?$AAx?$AAp?$AAe?$AAc?$AAt?$AAe?$AAd?$AA?5?$AAm?$AAu?$AAl?$AAt?$AAi?$AAt?$AAh?$AAr?$AAe?$AAa?$AAd?$AA?5@ 1001a8a0     LIBCMT:crt0msg.obj
 0002:00000900       ??_C@_1FI@LOGNIKDM@?$AAR?$AA6?$AA0?$AA1?$AA6?$AA?$AN?$AA?6?$AA?9?$AA?5?$AAn?$AAo?$AAt?$AA?5?$AAe?$AAn?$AAo?$AAu?$AAg?$AAh?$AA?5?$AAs?$AAp?$AAa?$AAc?$AAe?$AA?5?$AAf?$AAo?$AAr?$AA?5?$AAt?$AAh@ 1001a900     LIBCMT:crt0msg.obj
 0002:00000958       ??_C@_1EG@BEHAGFJD@?$AAR?$AA6?$AA0?$AA1?$AA0?$AA?$AN?$AA?6?$AA?9?$AA?5?$AAa?$AAb?$AAo?$AAr?$AAt?$AA?$CI?$AA?$CJ?$AA?5?$AAh?$AAa?$AAs?$AA?5?$AAb?$AAe?$AAe?$AAn?$AA?5?$AAc?$AAa?$AAl?$AAl?$AAe?$AAd@ 1001a958     LIBCMT:crt0msg.obj
 0002:000009a0       ??_C@_1FI@HONFMGBI@?$AAR?$AA6?$AA0?$AA0?$AA9?$AA?$AN?$AA?6?$AA?9?$AA?5?$AAn?$AAo?$AAt?$AA?5?$AAe?$AAn?$AAo?$AAu?$AAg?$AAh?$AA?5?$AAs?$AAp?$AAa?$AAc?$AAe?$AA?5?$AAf?$AAo?$AAr?$AA?5?$AAe?$AAn@ 1001a9a0     LIBCMT:crt0msg.obj
 0002:000009f8       ??_C@_1FE@LLNEDJMD@?$AAR?$AA6?$AA0?$AA0?$AA8?$AA?$AN?$AA?6?$AA?9?$AA?5?$AAn?$AAo?$AAt?$AA?5?$AAe?$AAn?$AAo?$AAu?$AAg?$AAh?$AA?5?$AAs?$AAp?$AAa?$AAc?$AAe?$AA?5?$AAf?$AAo?$AAr?$AA?5?$AAa?$AAr@ 1001a9f8     LIBCMT:crt0msg.obj
 0002:00000a50       ??_C@_1FK@PGACCAFB@?$AAR?$AA6?$AA0?$AA0?$AA2?$AA?$AN?$AA?6?$AA?9?$AA?5?$AAf?$AAl?$AAo?$AAa?$AAt?$AAi?$AAn?$AAg?$AA?5?$AAp?$AAo?$AAi?$AAn?$AAt?$AA?5?$AAs?$AAu?$AAp?$AAp?$AAo?$AAr?$AAt?$AA?5@ 1001aa50     LIBCMT:crt0msg.obj
 0002:00000b60       ??_C@_1EK@MBDPDCGA@?$AAM?$AAi?$AAc?$AAr?$AAo?$AAs?$AAo?$AAf?$AAt?$AA?5?$AAV?$AAi?$AAs?$AAu?$AAa?$AAl?$AA?5?$AAC?$AA?$CL?$AA?$CL?$AA?5?$AAR?$AAu?$AAn?$AAt?$AAi?$AAm?$AAe?$AA?5?$AAL?$AAi?$AAb@ 1001ab60     LIBCMT:crt0msg.obj
 0002:00000bac       ??_C@_15IABLJNFO@?$AA?6?$AA?6?$AA?$AA@ 1001abac     LIBCMT:crt0msg.obj
 0002:00000bb4       ??_C@_17LGKOMLJ@?$AA?4?$AA?4?$AA?4?$AA?$AA@ 1001abb4     LIBCMT:crt0msg.obj
 0002:00000bbc       ??_C@_1CO@EAEJAADC@?$AA?$DM?$AAp?$AAr?$AAo?$AAg?$AAr?$AAa?$AAm?$AA?5?$AAn?$AAa?$AAm?$AAe?$AA?5?$AAu?$AAn?$AAk?$AAn?$AAo?$AAw?$AAn?$AA?$DO?$AA?$AA@ 1001abbc     LIBCMT:crt0msg.obj
 0002:00000bec       ??_C@_1DE@JNGNBFGO@?$AAR?$AAu?$AAn?$AAt?$AAi?$AAm?$AAe?$AA?5?$AAE?$AAr?$AAr?$AAo?$AAr?$AA?$CB?$AA?6?$AA?6?$AAP?$AAr?$AAo?$AAg?$AAr?$AAa?$AAm?$AA?3?$AA?5?$AA?$AA@ 1001abec     LIBCMT:crt0msg.obj
 0002:00000c20       ??_C@_0BG@KLEAJEFJ@Illegal?5byte?5sequence?$AA@ 1001ac20     LIBCMT:syserr.obj
 0002:00000c38       ??_C@_0BE@ICMCHPHH@Directory?5not?5empty?$AA@ 1001ac38     LIBCMT:syserr.obj
 0002:00000c4c       ??_C@_0BJ@IHEHINLI@Function?5not?5implemented?$AA@ 1001ac4c     LIBCMT:syserr.obj
 0002:00000c68       ??_C@_0BD@CLHBCGPB@No?5locks?5available?$AA@ 1001ac68     LIBCMT:syserr.obj
 0002:00000c7c       ??_C@_0BC@BEDIHIDK@Filename?5too?5long?$AA@ 1001ac7c     LIBCMT:syserr.obj
 0002:00000c90       ??_C@_0BK@JAEBMJJM@Resource?5deadlock?5avoided?$AA@ 1001ac90     LIBCMT:syserr.obj
 0002:00000cac       ??_C@_0BB@FCBJFCAJ@Result?5too?5large?$AA@ 1001acac     LIBCMT:syserr.obj
 0002:00000cc0       ??_C@_0N@MMJPGLJK@Domain?5error?$AA@ 1001acc0     LIBCMT:syserr.obj
 0002:00000cd0       ??_C@_0M@LHEPIIOM@Broken?5pipe?$AA@ 1001acd0     LIBCMT:syserr.obj
 0002:00000cdc       ??_C@_0P@PKCJJLLM@Too?5many?5links?$AA@ 1001acdc     LIBCMT:syserr.obj
 0002:00000cec       ??_C@_0BG@DDBFNKBH@Read?9only?5file?5system?$AA@ 1001acec     LIBCMT:syserr.obj
 0002:00000d04       ??_C@_0N@FEHLOILP@Invalid?5seek?$AA@ 1001ad04     LIBCMT:syserr.obj
 0002:00000d14       ??_C@_0BI@FEALHKLD@No?5space?5left?5on?5device?$AA@ 1001ad14     LIBCMT:syserr.obj
 0002:00000d2c       ??_C@_0P@LFMMIPAE@File?5too?5large?$AA@ 1001ad2c     LIBCMT:syserr.obj
 0002:00000d3c       ??_C@_0CE@ONOKNLPF@Inappropriate?5I?1O?5control?5operat@ 1001ad3c     LIBCMT:syserr.obj
 0002:00000d60       ??_C@_0BE@INBJMKGG@Too?5many?5open?5files?$AA@ 1001ad60     LIBCMT:syserr.obj
 0002:00000d74       ??_C@_0BO@IIFBODJE@Too?5many?5open?5files?5in?5system?$AA@ 1001ad74     LIBCMT:syserr.obj
 0002:00000d94       ??_C@_0BB@HMGGCEBG@Invalid?5argument?$AA@ 1001ad94     LIBCMT:syserr.obj
 0002:00000da8       ??_C@_0P@NDHGCGKE@Is?5a?5directory?$AA@ 1001ada8     LIBCMT:syserr.obj
 0002:00000db8       ??_C@_0BA@CJBACOOL@Not?5a?5directory?$AA@ 1001adb8     LIBCMT:syserr.obj
 0002:00000dc8       ??_C@_0P@NLEIANHE@No?5such?5device?$AA@ 1001adc8     LIBCMT:syserr.obj
 0002:00000dd8       ??_C@_0O@OAMDNOCP@Improper?5link?$AA@ 1001add8     LIBCMT:syserr.obj
 0002:00000de8       ??_C@_0M@NAAJNNGH@File?5exists?$AA@ 1001ade8     LIBCMT:syserr.obj
 0002:00000df4       ??_C@_0BA@BIBLIOEK@Resource?5device?$AA@ 1001adf4     LIBCMT:syserr.obj
 0002:00000e04       ??_C@_0O@NIPGCINC@Unknown?5error?$AA@ 1001ae04     LIBCMT:syserr.obj
 0002:00000e14       ??_C@_0M@LOEHLCJD@Bad?5address?$AA@ 1001ae14     LIBCMT:syserr.obj
 0002:00000e20       ??_C@_0BC@HFNFNKAI@Permission?5denied?$AA@ 1001ae20     LIBCMT:syserr.obj
 0002:00000e34       ??_C@_0BB@IMDKMPFB@Not?5enough?5space?$AA@ 1001ae34     LIBCMT:syserr.obj
 0002:00000e48       ??_C@_0CB@EPFKGNAK@Resource?5temporarily?5unavailable@ 1001ae48     LIBCMT:syserr.obj
 0002:00000e6c       ??_C@_0BD@LOHELEP@No?5child?5processes?$AA@ 1001ae6c     LIBCMT:syserr.obj
 0002:00000e80       ??_C@_0BE@NFGDDCEF@Bad?5file?5descriptor?$AA@ 1001ae80     LIBCMT:syserr.obj
 0002:00000e94       ??_C@_0BC@HKPNECK@Exec?5format?5error?$AA@ 1001ae94     LIBCMT:syserr.obj
 0002:00000ea8       ??_C@_0BC@MFFGCDFL@Arg?5list?5too?5long?$AA@ 1001aea8     LIBCMT:syserr.obj
 0002:00000ebc       ??_C@_0BK@DPKMCKJ@No?5such?5device?5or?5address?$AA@ 1001aebc     LIBCMT:syserr.obj
 0002:00000ed8       ??_C@_0BD@KKNFOBBD@Input?1output?5error?$AA@ 1001aed8     LIBCMT:syserr.obj
 0002:00000eec       ??_C@_0BK@FJBOAFDK@Interrupted?5function?5call?$AA@ 1001aeec     LIBCMT:syserr.obj
 0002:00000f08       ??_C@_0BA@FKIAIBGA@No?5such?5process?$AA@ 1001af08     LIBCMT:syserr.obj
 0002:00000f18       ??_C@_0BK@FMDHKPNF@No?5such?5file?5or?5directory?$AA@ 1001af18     LIBCMT:syserr.obj
 0002:00000f34       ??_C@_0BI@BJFCGOHL@Operation?5not?5permitted?$AA@ 1001af34     LIBCMT:syserr.obj
 0002:00000f4c       ??_C@_08INEPGKHH@No?5error?$AA@ 1001af4c     LIBCMT:syserr.obj
 0002:00000f58       ??_C@_1BK@DBDEIDLH@?$AAK?$AAE?$AAR?$AAN?$AAE?$AAL?$AA3?$AA2?$AA?4?$AAD?$AAL?$AAL?$AA?$AA@ 1001af58     LIBCMT:tidtable.obj
 0002:00000f74       ??_C@_07PEJMOBNF@FlsFree?$AA@ 1001af74     LIBCMT:tidtable.obj
 0002:00000f7c       ??_C@_0M@JCPCPOEF@FlsSetValue?$AA@ 1001af7c     LIBCMT:tidtable.obj
 0002:00000f88       ??_C@_0M@GDNOONDI@FlsGetValue?$AA@ 1001af88     LIBCMT:tidtable.obj
 0002:00000f94       ??_C@_08KNHFBNJ@FlsAlloc?$AA@ 1001af94     LIBCMT:tidtable.obj
 0002:00000fc0       __XcptActTab               1001afc0     LIBCMT:winxfltr.obj
 0002:00001050       __First_FPE_Indx           1001b050     LIBCMT:winxfltr.obj
 0002:00001054       __Num_FPE                  1001b054     LIBCMT:winxfltr.obj
 0002:00001058       __XcptActTabSize           1001b058     LIBCMT:winxfltr.obj
 0002:0000105c       __XcptActTabCount          1001b05c     LIBCMT:winxfltr.obj
 0002:00001060       ??_C@_1BC@GDGBMEMK@?$AAH?$AAH?$AA?3?$AAm?$AAm?$AA?3?$AAs?$AAs?$AA?$AA@ 1001b060     LIBCMT:nlsdata2.obj
 0002:00001074       ??_C@_1CI@KNAKOEBC@?$AAd?$AAd?$AAd?$AAd?$AA?0?$AA?5?$AAM?$AAM?$AAM?$AAM?$AA?5?$AAd?$AAd?$AA?0?$AA?5?$AAy?$AAy?$AAy?$AAy?$AA?$AA@ 1001b074     LIBCMT:nlsdata2.obj
 0002:0000109c       ??_C@_1BC@IEBCMHCM@?$AAM?$AAM?$AA?1?$AAd?$AAd?$AA?1?$AAy?$AAy?$AA?$AA@ 1001b09c     LIBCMT:nlsdata2.obj
 0002:000010b0       ??_C@_15CLMNNGEL@?$AAP?$AAM?$AA?$AA@ 1001b0b0     LIBCMT:nlsdata2.obj
 0002:000010b8       ??_C@_15ODEHAHHF@?$AAA?$AAM?$AA?$AA@ 1001b0b8     LIBCMT:nlsdata2.obj
 0002:000010c0       ??_C@_1BC@FEMKIFH@?$AAD?$AAe?$AAc?$AAe?$AAm?$AAb?$AAe?$AAr?$AA?$AA@ 1001b0c0     LIBCMT:nlsdata2.obj
 0002:000010d4       ??_C@_1BC@BGLIFPF@?$AAN?$AAo?$AAv?$AAe?$AAm?$AAb?$AAe?$AAr?$AA?$AA@ 1001b0d4     LIBCMT:nlsdata2.obj
 0002:000010e8       ??_C@_1BA@EPANDLNG@?$AAO?$AAc?$AAt?$AAo?$AAb?$AAe?$AAr?$AA?$AA@ 1001b0e8     LIBCMT:nlsdata2.obj
 0002:000010f8       ??_C@_1BE@DKAAMBJL@?$AAS?$AAe?$AAp?$AAt?$AAe?$AAm?$AAb?$AAe?$AAr?$AA?$AA@ 1001b0f8     LIBCMT:nlsdata2.obj
 0002:0000110c       ??_C@_1O@PAHLKOAC@?$AAA?$AAu?$AAg?$AAu?$AAs?$AAt?$AA?$AA@ 1001b10c     LIBCMT:nlsdata2.obj
 0002:0000111c       ??_C@_19BIFMLPCD@?$AAJ?$AAu?$AAl?$AAy?$AA?$AA@ 1001b11c     LIBCMT:nlsdata2.obj
 0002:00001128       ??_C@_19EPFLPGAP@?$AAJ?$AAu?$AAn?$AAe?$AA?$AA@ 1001b128     LIBCMT:nlsdata2.obj
 0002:00001134       ??_C@_1M@GJNLMHFD@?$AAA?$AAp?$AAr?$AAi?$AAl?$AA?$AA@ 1001b134     LIBCMT:nlsdata2.obj
 0002:00001140       ??_C@_1M@IKEENEDF@?$AAM?$AAa?$AAr?$AAc?$AAh?$AA?$AA@ 1001b140     LIBCMT:nlsdata2.obj
 0002:0000114c       ??_C@_1BC@JGDDFFAM@?$AAF?$AAe?$AAb?$AAr?$AAu?$AAa?$AAr?$AAy?$AA?$AA@ 1001b14c     LIBCMT:nlsdata2.obj
 0002:00001160       ??_C@_1BA@EFMEIEBA@?$AAJ?$AAa?$AAn?$AAu?$AAa?$AAr?$AAy?$AA?$AA@ 1001b160     LIBCMT:nlsdata2.obj
 0002:00001170       ??_C@_17EGKACKIF@?$AAD?$AAe?$AAc?$AA?$AA@ 1001b170     LIBCMT:nlsdata2.obj
 0002:00001178       ??_C@_17BBDMLCIG@?$AAN?$AAo?$AAv?$AA?$AA@ 1001b178     LIBCMT:nlsdata2.obj
 0002:00001180       ??_C@_17FNLKOI@?$AAO?$AAc?$AAt?$AA?$AA@ 1001b180     LIBCMT:nlsdata2.obj
 0002:00001188       ??_C@_17HCHCOKMG@?$AAS?$AAe?$AAp?$AA?$AA@ 1001b188     LIBCMT:nlsdata2.obj
 0002:00001190       ??_C@_17ICPELBCN@?$AAA?$AAu?$AAg?$AA?$AA@ 1001b190     LIBCMT:nlsdata2.obj
 0002:00001198       ??_C@_17IJPCKHK@?$AAJ?$AAu?$AAl?$AA?$AA@ 1001b198     LIBCMT:nlsdata2.obj
 0002:000011a0       ??_C@_17KCJGOCPB@?$AAJ?$AAu?$AAn?$AA?$AA@ 1001b1a0     LIBCMT:nlsdata2.obj
 0002:000011a8       ??_C@_17PNNKMEED@?$AAM?$AAa?$AAy?$AA?$AA@ 1001b1a8     LIBCMT:nlsdata2.obj
 0002:000011b0       ??_C@_17LFPOIHDD@?$AAA?$AAp?$AAr?$AA?$AA@ 1001b1b0     LIBCMT:nlsdata2.obj
 0002:000011b8       ??_C@_17CKNLEDEC@?$AAM?$AAa?$AAr?$AA?$AA@ 1001b1b8     LIBCMT:nlsdata2.obj
 0002:000011c0       ??_C@_17LMDJEKJN@?$AAF?$AAe?$AAb?$AA?$AA@ 1001b1c0     LIBCMT:nlsdata2.obj
 0002:000011c8       ??_C@_17DKNBKCHM@?$AAJ?$AAa?$AAn?$AA?$AA@ 1001b1c8     LIBCMT:nlsdata2.obj
 0002:000011d0       ??_C@_1BC@ENMNNPAJ@?$AAS?$AAa?$AAt?$AAu?$AAr?$AAd?$AAa?$AAy?$AA?$AA@ 1001b1d0     LIBCMT:nlsdata2.obj
 0002:000011e4       ??_C@_1O@PDICJHAG@?$AAF?$AAr?$AAi?$AAd?$AAa?$AAy?$AA?$AA@ 1001b1e4     LIBCMT:nlsdata2.obj
 0002:000011f4       ??_C@_1BC@HHMNLIHE@?$AAT?$AAh?$AAu?$AAr?$AAs?$AAd?$AAa?$AAy?$AA?$AA@ 1001b1f4     LIBCMT:nlsdata2.obj
 0002:00001208       ??_C@_1BE@EBOGMDOH@?$AAW?$AAe?$AAd?$AAn?$AAe?$AAs?$AAd?$AAa?$AAy?$AA?$AA@ 1001b208     LIBCMT:nlsdata2.obj
 0002:0000121c       ??_C@_1BA@ENFBFFEK@?$AAT?$AAu?$AAe?$AAs?$AAd?$AAa?$AAy?$AA?$AA@ 1001b21c     LIBCMT:nlsdata2.obj
 0002:0000122c       ??_C@_1O@MMNBFLIA@?$AAM?$AAo?$AAn?$AAd?$AAa?$AAy?$AA?$AA@ 1001b22c     LIBCMT:nlsdata2.obj
 0002:0000123c       ??_C@_1O@IHNHDHPB@?$AAS?$AAu?$AAn?$AAd?$AAa?$AAy?$AA?$AA@ 1001b23c     LIBCMT:nlsdata2.obj
 0002:0000124c       ??_C@_17GGIBDPIH@?$AAS?$AAa?$AAt?$AA?$AA@ 1001b24c     LIBCMT:nlsdata2.obj
 0002:00001254       ??_C@_17HFOLPPLP@?$AAF?$AAr?$AAi?$AA?$AA@ 1001b254     LIBCMT:nlsdata2.obj
 0002:0000125c       ??_C@_17PDPHAADD@?$AAT?$AAh?$AAu?$AA?$AA@ 1001b25c     LIBCMT:nlsdata2.obj
 0002:00001264       ??_C@_17CJEDCEPE@?$AAW?$AAe?$AAd?$AA?$AA@ 1001b264     LIBCMT:nlsdata2.obj
 0002:0000126c       ??_C@_17BMKGEGOJ@?$AAT?$AAu?$AAe?$AA?$AA@ 1001b26c     LIBCMT:nlsdata2.obj
 0002:00001274       ??_C@_17KBOMKBF@?$AAM?$AAo?$AAn?$AA?$AA@ 1001b274     LIBCMT:nlsdata2.obj
 0002:0000127c       ??_C@_17MBGCMIPB@?$AAS?$AAu?$AAn?$AA?$AA@ 1001b27c     LIBCMT:nlsdata2.obj
 0002:00001284       ??_C@_08JCCMCCIL@HH?3mm?3ss?$AA@ 1001b284     LIBCMT:nlsdata2.obj
 0002:00001290       ??_C@_0BE@CKGJFCPC@dddd?0?5MMMM?5dd?0?5yyyy?$AA@ 1001b290     LIBCMT:nlsdata2.obj
 0002:000012a4       ??_C@_08BPBNCDIB@MM?1dd?1yy?$AA@ 1001b2a4     LIBCMT:nlsdata2.obj
 0002:000012b0       ??_C@_02CJNFDJBF@PM?$AA@   1001b2b0     LIBCMT:nlsdata2.obj
 0002:000012b4       ??_C@_02DEDBPAFC@AM?$AA@   1001b2b4     LIBCMT:nlsdata2.obj
 0002:000012b8       ??_C@_08EDHMEBNP@December?$AA@ 1001b2b8     LIBCMT:nlsdata2.obj
 0002:000012c4       ??_C@_08HCHEGEOA@November?$AA@ 1001b2c4     LIBCMT:nlsdata2.obj
 0002:000012d0       ??_C@_07JJNFCEND@October?$AA@ 1001b2d0     LIBCMT:nlsdata2.obj
 0002:000012d8       ??_C@_09BHHEALKD@September?$AA@ 1001b2d8     LIBCMT:nlsdata2.obj
 0002:000012e4       ??_C@_06LBBHFDDG@August?$AA@ 1001b2e4     LIBCMT:nlsdata2.obj
 0002:000012ec       ??_C@_04MIEPOIFP@July?$AA@ 1001b2ec     LIBCMT:nlsdata2.obj
 0002:000012f4       ??_C@_04CNLMGBGM@June?$AA@ 1001b2f4     LIBCMT:nlsdata2.obj
 0002:000012fc       ??_C@_05DMJDNLEJ@April?$AA@ 1001b2fc     LIBCMT:nlsdata2.obj
 0002:00001304       ??_C@_05HPCKOFNC@March?$AA@ 1001b304     LIBCMT:nlsdata2.obj
 0002:0000130c       ??_C@_08GNJGEPFN@February?$AA@ 1001b30c     LIBCMT:nlsdata2.obj
 0002:00001318       ??_C@_07CGJPFGJA@January?$AA@ 1001b318     LIBCMT:nlsdata2.obj
 0002:00001320       ??_C@_03MKABNOCG@Dec?$AA@  1001b320     LIBCMT:nlsdata2.obj
 0002:00001324       ??_C@_03JPJOFNIA@Nov?$AA@  1001b324     LIBCMT:nlsdata2.obj
 0002:00001328       ??_C@_03BMAOKBAD@Oct?$AA@  1001b328     LIBCMT:nlsdata2.obj
 0002:0000132c       ??_C@_03GGCAPAJC@Sep?$AA@  1001b32c     LIBCMT:nlsdata2.obj
 0002:00001330       ??_C@_03IFJFEIGA@Aug?$AA@  1001b330     LIBCMT:nlsdata2.obj
 0002:00001334       ??_C@_03LBGABGKK@Jul?$AA@  1001b334     LIBCMT:nlsdata2.obj
 0002:00001338       ??_C@_03IDFGHECI@Jun?$AA@  1001b338     LIBCMT:nlsdata2.obj
 0002:0000133c       ??_C@_03CNMDKL@May?$AA@    1001b33c     LIBCMT:nlsdata2.obj
 0002:00001340       ??_C@_03LEOLGMJP@Apr?$AA@  1001b340     LIBCMT:nlsdata2.obj
 0002:00001344       ??_C@_03ODNJBKGA@Mar?$AA@  1001b344     LIBCMT:nlsdata2.obj
 0002:00001348       ??_C@_03HJBDCHOM@Feb?$AA@  1001b348     LIBCMT:nlsdata2.obj
 0002:0000134c       ??_C@_03JIHJHPIE@Jan?$AA@  1001b34c     LIBCMT:nlsdata2.obj
 0002:00001350       ??_C@_08INBOOONO@Saturday?$AA@ 1001b350     LIBCMT:nlsdata2.obj
 0002:0000135c       ??_C@_06JECMNKMI@Friday?$AA@ 1001b35c     LIBCMT:nlsdata2.obj
 0002:00001364       ??_C@_08HACCIKIA@Thursday?$AA@ 1001b364     LIBCMT:nlsdata2.obj
 0002:00001370       ??_C@_09DLIGFAKA@Wednesday?$AA@ 1001b370     LIBCMT:nlsdata2.obj
 0002:0000137c       ??_C@_07BAAGCFCM@Tuesday?$AA@ 1001b37c     LIBCMT:nlsdata2.obj
 0002:00001384       ??_C@_06JLEDEDGH@Monday?$AA@ 1001b384     LIBCMT:nlsdata2.obj
 0002:0000138c       ??_C@_06OOPIFAJ@Sunday?$AA@ 1001b38c     LIBCMT:nlsdata2.obj
 0002:00001394       ??_C@_03FEFJNEK@Sat?$AA@   1001b394     LIBCMT:nlsdata2.obj
 0002:00001398       ??_C@_03IDIOELNC@Fri?$AA@  1001b398     LIBCMT:nlsdata2.obj
 0002:0000139c       ??_C@_03IOFIKPDN@Thu?$AA@  1001b39c     LIBCMT:nlsdata2.obj
 0002:000013a0       ??_C@_03MHOMLAJA@Wed?$AA@  1001b3a0     LIBCMT:nlsdata2.obj
 0002:000013a4       ??_C@_03NAGEINEP@Tue?$AA@  1001b3a4     LIBCMT:nlsdata2.obj
 0002:000013a8       ??_C@_03PDAGKDH@Mon?$AA@   1001b3a8     LIBCMT:nlsdata2.obj
 0002:000013ac       ??_C@_03KOEHGMDN@Sun?$AA@  1001b3ac     LIBCMT:nlsdata2.obj
 0002:000013b0       ___lookuptable_s           1001b3b0     LIBCMT:outputs.obj
 0002:0000140c       ??_C@_0BI@DFKBFLJE@GetProcessWindowStation?$AA@ 1001b40c     LIBCMT:crtmboxw.obj
 0002:00001424       ??_C@_0BK@DEKFELLI@GetUserObjectInformationW?$AA@ 1001b424     LIBCMT:crtmboxw.obj
 0002:00001440       ??_C@_0BD@HHGDFDBJ@GetLastActivePopup?$AA@ 1001b440     LIBCMT:crtmboxw.obj
 0002:00001454       ??_C@_0BA@HNOPNCHB@GetActiveWindow?$AA@ 1001b454     LIBCMT:crtmboxw.obj
 0002:00001464       ??_C@_0M@DLDCCGNP@MessageBoxW?$AA@ 1001b464     LIBCMT:crtmboxw.obj
 0002:00001470       ??_C@_1BG@GOEBHBDC@?$AAU?$AAS?$AAE?$AAR?$AA3?$AA2?$AA?4?$AAD?$AAL?$AAL?$AA?$AA@ 1001b470     LIBCMT:crtmboxw.obj
 0002:00001490       ___newctype                1001b490     LIBCMT:ctype.obj
 0002:00001790       __wctype                   1001b790     LIBCMT:ctype.obj
 0002:00001998       ___newclmap                1001b998     LIBCMT:ctype.obj
 0002:00001b18       ___newcumap                1001bb18     LIBCMT:ctype.obj
 0002:00001c98       ??_C@_1BA@BALFACEM@?$AAC?$AAO?$AAN?$AAO?$AAU?$AAT?$AA$?$AA?$AA@ 1001bc98     LIBCMT:initcon.obj
 0002:00001d28       ??_C@_05DFCKICEH@1?42?45?$AA@ 1001bd28     compress.obj
 0002:00001d30       _z_errmsg                  1001bd30     zutil.obj
 0002:00001d58       _zip_copyright             1001bd58     zip.obj
 0002:00001da8       _unz_copyright             1001bda8     unzip.obj
 0002:00002448       __dist_code                1001c448     trees.obj
 0002:00002648       __length_code              1001c648     trees.obj
 0002:00002838       _inflate_copyright         1001c838     inftrees.obj
 0002:00003ab8       _deflate_copyright         1001dab8     deflate.obj
 0002:00005b80       ??_C@_07EBNKNFJN@?$DMfd?3?$CFd?$DO?$AA@ 1001fb80     gzlib.obj
 0002:00005b88       ??_C@_00CNPNBAHC@?$AA@     1001fb88     gzlib.obj
 0002:00005b8c       ??_C@_0O@BNNCBLEN@out?5of?5memory?$AA@ 1001fb8c     gzlib.obj
 0002:00005b9c       ??_C@_02LMMGGCAJ@?3?5?$AA@ 1001fb9c     gzlib.obj
 0002:00005ba0       ??_C@_0BL@IHKGDAEE@unknown?5compression?5method?$AA@ 1001fba0     gzread.obj
 0002:00005bbc       ??_C@_0BJ@BLBBCOMO@unknown?5header?5flags?5set?$AA@ 1001fbbc     gzread.obj
 0002:00005bd8       ??_C@_0BH@CFIIDOJD@unexpected?5end?5of?5file?$AA@ 1001fbd8     gzread.obj
 0002:00005bf0       ??_C@_0CH@CPOLIEKA@internal?5error?3?5inflate?5stream?5c@ 1001fbf0     gzread.obj
 0002:00005c18       ??_C@_0BG@HCKBMIHF@compressed?5data?5error?$AA@ 1001fc18     gzread.obj
 0002:00005c30       ??_C@_0BF@MEIGEHBE@incorrect?5data?5check?$AA@ 1001fc30     gzread.obj
 0002:00005c48       ??_C@_0BH@FGKKJGOC@incorrect?5length?5check?$AA@ 1001fc48     gzread.obj
 0002:00005c60       ??_C@_0CF@MLPJFDMM@requested?5length?5does?5not?5fit?5in@ 1001fc60     gzread.obj
 0002:00005c88       ??_C@_0BP@IIKIGMCC@out?5of?5room?5to?5push?5characters?$AA@ 1001fc88     gzread.obj
 0002:00005ca8       ??_C@_0CH@DEEGAHIB@internal?5error?3?5deflate?5stream?5c@ 1001fca8     gzwrite.obj
 0002:00005cd0       ??_C@_0BD@PJCBIDD@invalid?5block?5type?$AA@ 1001fcd0     infback.obj
 0002:00005ce4       ??_C@_0BN@LGAADGOK@invalid?5stored?5block?5lengths?$AA@ 1001fce4     infback.obj
 0002:00005d04       ??_C@_0CE@GMIGFPBB@too?5many?5length?5or?5distance?5symb@ 1001fd04     infback.obj
 0002:00005d28       ??_C@_0BJ@HDEPPGOH@invalid?5code?5lengths?5set?$AA@ 1001fd28     infback.obj
 0002:00005d44       ??_C@_0BK@BMMPFBBH@invalid?5bit?5length?5repeat?$AA@ 1001fd44     infback.obj
 0002:00005d60       ??_C@_0CF@DGDMADCD@invalid?5code?5?9?9?5missing?5end?9of?9b@ 1001fd60     infback.obj
 0002:00005d88       ??_C@_0BM@IIMGAINC@invalid?5literal?1lengths?5set?$AA@ 1001fd88     infback.obj
 0002:00005da4       ??_C@_0BG@GMDFCBGP@invalid?5distances?5set?$AA@ 1001fda4     infback.obj
 0002:00005dbc       ??_C@_0BM@FFFLPBBC@invalid?5literal?1length?5code?$AA@ 1001fdbc     infback.obj
 0002:00005dd8       ??_C@_0BG@LBKINIKP@invalid?5distance?5code?$AA@ 1001fdd8     infback.obj
 0002:00005df0       ??_C@_0BO@ECPMAOGG@invalid?5distance?5too?5far?5back?$AA@ 1001fdf0     infback.obj
 0002:00005e10       ??_C@_0BH@LIBMMIGA@incorrect?5header?5check?$AA@ 1001fe10     inflate.obj
 0002:00005e28       ??_C@_0BE@EMOGCLGO@invalid?5window?5size?$AA@ 1001fe28     inflate.obj
 0002:00005e3c       ??_C@_0BE@GONKLEPM@header?5crc?5mismatch?$AA@ 1001fe3c     inflate.obj
 0002:00005e50       ??_C@_02JDPG@rb?$AA@       1001fe50     ioapi.obj
 0002:00005e54       ??_C@_03HMFOOINA@r?$CLb?$AA@ 1001fe54     ioapi.obj
 0002:00005e58       ??_C@_02GMLFBBN@wb?$AA@    1001fe58     ioapi.obj
 0002:00005e5c       ??_C@_01JOAMLHOP@?9?$AA@   1001fe5c     zip.obj
 0002:00005e60       ??_C@_0BF@CJFPCCEG@incompatible?5version?$AA@ 1001fe60     zutil.obj
 0002:00005e78       ??_C@_0N@DFPGLBGC@buffer?5error?$AA@ 1001fe78     zutil.obj
 0002:00005e88       ??_C@_0BE@OGGJBMCE@insufficient?5memory?$AA@ 1001fe88     zutil.obj
 0002:00005e9c       ??_C@_0L@HAHMBNLP@data?5error?$AA@ 1001fe9c     zutil.obj
 0002:00005ea8       ??_C@_0N@MKKNPMJD@stream?5error?$AA@ 1001fea8     zutil.obj
 0002:00005eb8       ??_C@_0L@KIJFAKBJ@file?5error?$AA@ 1001feb8     zutil.obj
 0002:00005ec4       ??_C@_0L@FNAOCBOG@stream?5end?$AA@ 1001fec4     zutil.obj
 0002:00005ed0       ??_C@_0BA@MOKMMFOD@need?5dictionary?$AA@ 1001fed0     zutil.obj
 0002:00005ee0       ___rtc_iaa                 1001fee0     LIBCMT:_initsect_.obj
 0002:00005ee4       ___rtc_izz                 1001fee4     LIBCMT:_initsect_.obj
 0002:00005ee8       ___rtc_taa                 1001fee8     LIBCMT:_initsect_.obj
 0002:00005eec       ___rtc_tzz                 1001feec     LIBCMT:_initsect_.obj
 0002:0000630c       __IMPORT_DESCRIPTOR_KERNEL32 1002030c     kernel32:KERNEL32.dll
 0002:00006320       __NULL_IMPORT_DESCRIPTOR   10020320     kernel32:KERNEL32.dll
 0003:00000180       ___nullstring              10022180     LIBCMT:output.obj
 0003:00000184       ___wnullstring             10022184     LIBCMT:output.obj
 0003:00000188       __sys_errlist              10022188     LIBCMT:syserr.obj
 0003:00000238       __sys_nerr                 10022238     LIBCMT:syserr.obj
 0003:0000023c       ___flsindex                1002223c     LIBCMT:tidtable.obj
 0003:00000240       ___getvalueindex           10022240     LIBCMT:tidtable.obj
 0003:00000248       __lookuptrailbytes         10022248     LIBCMT:read.obj
 0003:00000348       ___badioinfo               10022348     LIBCMT:ioinit.obj
 0003:00000388       ___security_cookie         10022388     LIBCMT:gs_cookie.obj
 0003:0000038c       ___security_cookie_complement 1002238c     LIBCMT:gs_cookie.obj
 0003:00000390       __iob                      10022390     LIBCMT:_file.obj
 0003:00000610       ___initialmbcinfo          10022610     LIBCMT:mbctype.obj
 0003:00000830       __mbctype                  10022830     LIBCMT:mbctype.obj
 0003:00000938       __mbcasemap                10022938     LIBCMT:mbctype.obj
 0003:00000a38       ___ptmbcinfo               10022a38     LIBCMT:mbctype.obj
 0003:00000b30       ___globallocalestatus      10022b30     LIBCMT:glstatus.obj
 0003:00000b34       ___clocalestr              10022b34     LIBCMT:nlsdata2.obj
 0003:00000b38       ___lc_time_c               10022b38     LIBCMT:nlsdata2.obj
 0003:00000ca0       ___initiallocinfo          10022ca0     LIBCMT:nlsdata2.obj
 0003:00000d78       ___ptlocinfo               10022d78     LIBCMT:nlsdata2.obj
 0003:00000d7c       __cfltcvt_tab              10022d7c     LIBCMT:cmiscdat.obj
 0003:00000ed0       __NLG_Destination          10022ed0     LIBCMT:exsup.obj
 0003:00000ee0       ___lconv_static_decimal    10022ee0     LIBCMT:lconv.obj
 0003:00000ee4       ___lconv_static_W_decimal  10022ee4     LIBCMT:lconv.obj
 0003:00000ee8       ___lconv_c                 10022ee8     LIBCMT:lconv.obj
 0003:00000f38       ___lconv                   10022f38     LIBCMT:lconv.obj
 0003:00000f3c       __pctype                   10022f3c     LIBCMT:ctype.obj
 0003:00000f40       __pwctype                  10022f40     LIBCMT:ctype.obj
 0003:00000f44       ___abort_behavior          10022f44     LIBCMT:abort.obj
 0003:00000f48       __confh                    10022f48     LIBCMT:initcon.obj
 0003:00000f60       ___mb_cur_max              10022f60     LIBCMT:nlsdata1.obj
 0003:00000f64       ___decimal_point           10022f64     LIBCMT:nlsdata1.obj
 0003:00000f68       ___decimal_point_length    10022f68     LIBCMT:nlsdata1.obj
 0003:00000fc4       __aenvptr                  10022fc4     LIBCMT:dllcrt0.obj
 0003:00000fc8       __wenvptr                  10022fc8     LIBCMT:dllcrt0.obj
 0003:00000fcc       ___error_mode              10022fcc     LIBCMT:dllcrt0.obj
 0003:00000fd0       ___app_type                10022fd0     LIBCMT:dllcrt0.obj
 0003:00000fd4       ___pInvalidArgHandler      10022fd4     LIBCMT:invarg.obj
 0003:00000fd8       __crtheap                  10022fd8     LIBCMT:heapinit.obj
 0003:00000fdc       __umaskval                 10022fdc     LIBCMT:crt0dat.obj
 0003:00000fe0       ___argc                    10022fe0     LIBCMT:crt0dat.obj
 0003:00000fe4       ___argv                    10022fe4     LIBCMT:crt0dat.obj
 0003:00000fe8       ___wargv                   10022fe8     LIBCMT:crt0dat.obj
 0003:00000fec       __environ                  10022fec     LIBCMT:crt0dat.obj
 0003:00000ff0       ___initenv                 10022ff0     LIBCMT:crt0dat.obj
 0003:00000ff4       __wenviron                 10022ff4     LIBCMT:crt0dat.obj
 0003:00000ff8       ___winitenv                10022ff8     LIBCMT:crt0dat.obj
 0003:00000ffc       __pgmptr                   10022ffc     LIBCMT:crt0dat.obj
 0003:00001000       __wpgmptr                  10023000     LIBCMT:crt0dat.obj
 0003:00001004       __exitflag                 10023004     LIBCMT:crt0dat.obj
 0003:00001008       __C_Termination_Done       10023008     LIBCMT:crt0dat.obj
 0003:0000100c       __C_Exit_Done              1002300c     LIBCMT:crt0dat.obj
 0003:00001638       ?_pnhHeap@@3P6AHI@ZA       10023638     LIBCMT:handler.obj
 0003:0000163c       __newmode                  1002363c     LIBCMT:_newmode.obj
 0003:00001640       __maxwait                  10023640     LIBCMT:crtheap.obj
 0003:00001644       _gpFlsAlloc                10023644     LIBCMT:tidtable.obj
 0003:00001648       _gpFlsGetValue             10023648     LIBCMT:tidtable.obj
 0003:0000164c       _gpFlsSetValue             1002364c     LIBCMT:tidtable.obj
 0003:00001650       _gpFlsFree                 10023650     LIBCMT:tidtable.obj
 0003:00001654       __cflush                   10023654     LIBCMT:_file.obj
 0003:00001764       ___mbulinfo                10023764     LIBCMT:mbctype.obj
 0003:00001770       ___mbcodepage              10023770     LIBCMT:mbctype.obj
 0003:00001774       ___ismbcodepage            10023774     LIBCMT:mbctype.obj
 0003:00001778       ___mblcid                  10023778     LIBCMT:mbctype.obj
 0003:000018d0       ?__pInconsistency@@3P6AXXZA 100238d0     LIBCMT:hooks.obj
 0003:000018ec       ___pPurecall               100238ec     LIBCMT:inithelp.obj
 0003:00001c2c       __commode                  10023c2c     LIBCMT:ncommode.obj
 0003:00001c30       ___lconv_static_null       10023c30     LIBCMT:lconv.obj
 0003:00001c34       ___lconv_static_W_null     10023c34     LIBCMT:lconv.obj
 0003:00001c38       __stdbuf                   10023c38     LIBCMT:_sftbuf.obj
 0003:00001c40       ___locale_changed          10023c40     LIBCMT:setlocal.obj
 0003:00001c44       __fmode                    10023c44     LIBCMT:txtmode.obj
 0003:00001c4c       ___sse2_available          10023c4c     <common>
 0003:00001c50       __debugger_hook_dummy      10023c50     <common>
 0003:00001c54       __pDestructExceptionObject 10023c54     <common>
 0003:00001c58       ___piob                    10023c58     <common>
 0003:00001c60       __bufin                    10023c60     <common>
 0003:00002c60       __nstream                  10024c60     <common>
 0003:00002c64       __nhandle                  10024c64     <common>
 0003:00002c80       ___pioinfo                 10024c80     <common>
 0003:00002d80       ___env_initialized         10024d80     <common>
 0003:00002d84       ___onexitend               10024d84     <common>
 0003:00002d88       ___onexitbegin             10024d88     <common>
 0003:00002d8c       ___mbctype_initialized     10024d8c     <common>
 0003:00002d90       __FPinit                   10024d90     <common>
 0003:00002d94       ___dyn_tls_init_callback   10024d94     <common>
 0003:00002d98       __acmdln                   10024d98     <common>

 entry point at        0001:00005515

 Static symbols

 0001:00000000       _flush_pending             10001000 f    CIL library: CIL module
 0001:00000480       _updatewindow              10001480 f    CIL library: CIL module
 0001:00001950       _fill_window               10002950 f    CIL library: CIL module
 0001:00001ae0       _deflate_slow              10002ae0 f    CIL library: CIL module
 0001:00001e80       _scan_tree                 10002e80 f    CIL library: CIL module
 0001:00002140       _build_tree                10003140 f    CIL library: CIL module
 0001:000025a0       _gen_bitlen                100035a0 f    CIL library: CIL module
 0001:000026e0       _send_all_trees            100036e0 f    CIL library: CIL module
 0001:00002860       _send_tree                 10003860 f    CIL library: CIL module
 0001:00002de0       _compress_block            10003de0 f    CIL library: CIL module
 0001:00003540       _lm_init                   10004540 f    CIL library: CIL module
 0001:000035d0       _init_block                100045d0 f    CIL library: CIL module
 0001:00003820       _detect_data_type          10004820 f    CIL library: CIL module
 0001:00003870       _bi_windup                 10004870 f    CIL library: CIL module
 0001:0000541f       ___DllMainCRTStartup       1000641f f   LIBCMT:dllcrt0.obj
 0001:00005723       _write_char                10006723 f   LIBCMT:output.obj
 0001:00005756       _write_string              10006756 f   LIBCMT:output.obj
 0001:00006685       _doexit                    10007685 f   LIBCMT:crt0dat.obj
 0001:00007fef       _flsall                    10008fef f   LIBCMT:fflush.obj
 0001:00008530       __unwind_handler4          10009530 f   LIBCMT:exsup4.obj
 0001:00009764       _parse_cmdline             1000a764 f   LIBCMT:stdargv.obj
 0001:00009d46       ?CPtoLCID@@YAHH@Z          1000ad46 f   LIBCMT:mbctype.obj
 0001:00009d75       ?setSBCS@@YAXPAUthreadmbcinfostruct@@@Z 1000ad75 f   LIBCMT:mbctype.obj
 0001:00009dd9       ?setSBUpLow@@YAXPAUthreadmbcinfostruct@@@Z 1000add9 f   LIBCMT:mbctype.obj
 0001:0000a00d       ?getSystemCP@@YAHH@Z       1000b00d f   LIBCMT:mbctype.obj
 0001:0000aca2       _siglookup                 1000bca2 f   LIBCMT:winsig.obj
 0001:0000aea7       __onexit_nolock            1000bea7 f   LIBCMT:onexit.obj
 0001:0000bc20       __tsopen_nolock            1000cc20 f   LIBCMT:open.obj
 0001:0000c890       __unwind_handler           1000d890 f   LIBCMT:exsup.obj
 0001:0000cce6       ?x_ismbbtype_l@@YAHPAUlocaleinfo_struct@@IHH@Z 1000dce6 f   LIBCMT:ismbbyte.obj
 0001:0000cd71       ?__crtLCMapStringA_stat@@YAHPAUlocaleinfo_struct@@KKPBDHPADHHH@Z 1000dd71 f   LIBCMT:a_map.obj
 0001:0000cf9e       ?__crtGetStringTypeA_stat@@YAHPAUlocaleinfo_struct@@KPBDHPAGHHH@Z 1000df9e f   LIBCMT:a_str.obj
 0001:0000f811       _zip64local_getByte        10010811 f    CIL library: CIL module
 0001:0000f811       _unz64local_getByte        10010811 f    CIL library: CIL module
 0001:0000f858       _zip64local_TmzDateToDosDate 10010858 f    CIL library: CIL module
 0001:0000f8a3       _zip64local_putValue_inmemory 100108a3 f    CIL library: CIL module
 0001:0000f8e4       _zip64local_putValue       100108e4 f    CIL library: CIL module
 0001:0000f944       _free_datablock            10010944 f    CIL library: CIL module
 0001:0000f968       _allocate_new_datablock    10010968 f    CIL library: CIL module
 0001:0000fa8e       _unz64local_DosDateToTmuDate 10010a8e f    CIL library: CIL module
 0001:0000fb53       _strcmpcasenosensitive_internal 10010b53 f    CIL library: CIL module
 0001:0000fba7       _bi_flush                  10010ba7 f    CIL library: CIL module
 0001:00010039       _win32_build_iowin         10011039 f    CIL library: CIL module
 0001:00010077       _win32_translate_open_mode 10011077 f    CIL library: CIL module
 0001:000100f1       _ferror_file_func          100110f1 f    CIL library: CIL module
 0001:00010102       _fclose_file_func          10011102 f    CIL library: CIL module
 0001:00010113       _fseek64_file_func         10011113 f    CIL library: CIL module
 0001:0001015d       _ftell64_file_func         1001115d f    CIL library: CIL module
 0001:0001016e       _fwrite_file_func          1001116e f    CIL library: CIL module
 0001:00010189       _fread_file_func           10011189 f    CIL library: CIL module
 0001:000101a4       _fopen64_file_func         100111a4 f    CIL library: CIL module
 0001:000104bf       _syncsearch                100114bf f    CIL library: CIL module
 0001:00010913       _gz_reset                  10011913 f    CIL library: CIL module
 0001:00010ad0       _gf2_matrix_times          10011ad0 f    CIL library: CIL module
 0001:00010af0       _crc32_little              10011af0 f    CIL library: CIL module
 0001:00010df6       _adler32_combine_          10011df6 f    CIL library: CIL module
 0001:000111d1       _zip64FlushWriteBuffer     100121d1 f    CIL library: CIL module
 0001:00011511       _zip64local_SearchCentralDir 10012511 f    CIL library: CIL module
 0001:00011511       _unz64local_SearchCentralDir 10012511 f    CIL library: CIL module
 0001:000116a5       _zip64local_getLong64      100126a5 f    CIL library: CIL module
 0001:000117fd       _zip64local_getLong        100127fd f    CIL library: CIL module
 0001:00011894       _zip64local_getShort       10012894 f    CIL library: CIL module
 0001:000118f3       _add_data_in_datablock     100128f3 f    CIL library: CIL module
 0001:00011998       _init_keys                 10012998 f    CIL library: CIL module
 0001:00011cb1       _unz64local_getLong64      10012cb1 f    CIL library: CIL module
 0001:00011e00       _unz64local_getLong        10012e00 f    CIL library: CIL module
 0001:00011e97       _unz64local_getShort       10012e97 f    CIL library: CIL module
 0001:00011ef6       _copy_block                10012ef6 f    CIL library: CIL module
 0001:00013004       _gz_load                   10014004 f    CIL library: CIL module
 0001:000130c7       _gz_open                   100140c7 f    CIL library: CIL module
 0001:000132e4       _read_buf                  100142e4 f    CIL library: CIL module
 0001:000135f4       _gf2_matrix_square         100145f4 f    CIL library: CIL module
 0001:0001363f       _zip64local_SearchCentralDir64 1001463f f    CIL library: CIL module
 0001:000138a7       _crypthead                 100148a7 f    CIL library: CIL module
 0001:00013d65       _unz64local_CheckCurrentFileCoherencyHeader 10014d65 f    CIL library: CIL module
 0001:00013f95       _unz64local_GetCurrentFileInfoInternal 10014f95 f    CIL library: CIL module
 0001:0001448e       _unz64local_SearchCentralDir64 1001548e f    CIL library: CIL module
 0001:000147b3       _gz_init                   100157b3 f    CIL library: CIL module
 0001:0001487c       _gz_avail                  1001587c f    CIL library: CIL module
 0001:00014a2c       _crc32_combine_            10015a2c f    CIL library: CIL module
 0001:00015498       _unzOpenInternal           10016498 f    CIL library: CIL module
 0001:000158e5       _gz_head                   100168e5 f    CIL library: CIL module
 0001:00015d51       _gz_next4                  10016d51 f    CIL library: CIL module
 0001:00015e45       _deflate_huff              10016e45 f    CIL library: CIL module
 0001:00015f88       _deflate_rle               10016f88 f    CIL library: CIL module
 0001:000161f5       _deflate_fast              100171f5 f    CIL library: CIL module
 0001:000164e3       _deflate_stored            100174e3 f    CIL library: CIL module
 0001:000172a6       _gz_comp                   100182a6 f    CIL library: CIL module
 0001:000173b7       _gz_decomp                 100183b7 f    CIL library: CIL module
 0001:00017aee       _gz_zero                   10018aee f    CIL library: CIL module
 0001:00017b7d       _gz_make                   10018b7d f    CIL library: CIL module
 0001:00018297       _gz_skip                   10019297 f    CIL library: CIL module
